(dp1
S'ham'
p2
(dp3
S'body'
p4
(dp5
S'limited'
p6
F0.00012914890869172155
sS'pardon'
p7
F0.00012914890869172155
sS'audioencoder'
p8
F0.00012914890869172155
sS'11540'
p9
F6.4574454345860775e-05
sS'sleep'
p10
F0.00038744672607516468
sS'nsdata'
p11
F0.00038744672607516468
sS'forget'
p12
F6.4574454345860775e-05
sS'whose'
p13
F0.00012914890869172155
sS'imagefile'
p14
F0.0002582978173834431
sS'imobie'
p15
F6.4574454345860775e-05
sS'bike'
p16
F6.4574454345860775e-05
sS'imbeds'
p17
F0.00012914890869172155
sS'under'
p18
F6.4574454345860775e-05
sS'filehelper'
p19
F0.00038744672607516468
sS'regrets'
p20
F0.00012914890869172155
sS'void'
p21
F0.0025184037194885705
sS'sheridan'
p22
F0.00012914890869172155
sS'pigment'
p23
F0.00012914890869172155
sS'every'
p24
F0.00012914890869172155
sS'foul'
p25
F6.4574454345860775e-05
sS'zadanie'
p26
F0.00038744672607516468
sS'electronics'
p27
F6.4574454345860775e-05
sS'philosopher'
p28
F0.0002582978173834431
sS'school'
p29
F6.4574454345860775e-05
sS'companies'
p30
F6.4574454345860775e-05
sS'solution'
p31
F0.0010331912695337724
sS'herbert'
p32
F0.00019372336303758234
sS'enhance'
p33
F0.00012914890869172155
sS'295'
p34
F0.0002582978173834431
sS'zad5'
p35
F0.00012914890869172155
sS'setoutputformat'
p36
F0.00012914890869172155
sS'phones'
p37
F0.0002582978173834431
sS'consistent'
p38
F6.4574454345860775e-05
sS'fit'
p39
F6.4574454345860775e-05
sS'direct'
p40
F0.00012914890869172155
sS'feasibility'
p41
F6.4574454345860775e-05
sS'elegant'
p42
F6.4574454345860775e-05
sS'second'
p43
F0.00058117008911274701
sS'implemented'
p44
F6.4574454345860775e-05
sS'specs'
p45
F0.00012914890869172155
sS'even'
p46
F0.0005165956347668862
sS'errors'
p47
F0.00012914890869172155
sS'hide'
p48
F6.4574454345860775e-05
sS'akbrentacar'
p49
F6.4574454345860775e-05
sS'negates'
p50
F6.4574454345860775e-05
sS'lights'
p51
F6.4574454345860775e-05
sS'above'
p52
F0.00019372336303758234
sS'blur'
p53
F0.00012914890869172155
sS'new'
p54
F0.0030995738086013174
sS'net'
p55
F0.00019372336303758234
sS'poorly'
p56
F6.4574454345860775e-05
sS'men'
p57
F6.4574454345860775e-05
sS'nslog'
p58
F0.0017435102673382409
sS'equals'
p59
F0.00012914890869172155
sS'here'
p60
F0.0022601059021051272
sS'met'
p61
F6.4574454345860775e-05
sS'studio'
p62
F0.0002582978173834431
sS'codecs'
p63
F0.00012914890869172155
sS'102'
p64
F0.0002582978173834431
sS'path'
p65
F0.0002582978173834431
sS'100'
p66
F0.00038744672607516468
sS'101'
p67
F6.4574454345860775e-05
sS"i'v"
p68
F0.00012914890869172155
sS'forum'
p69
F0.00012914890869172155
sS'study'
p70
F6.4574454345860775e-05
sS'changed'
p71
F0.00019372336303758234
sS'reports'
p72
F6.4574454345860775e-05
sS"i'd"
p73
F6.4574454345860775e-05
sS'analysts'
p74
F0.00012914890869172155
sS'dimness'
p75
F6.4574454345860775e-05
sS'akb'
p76
F0.00012914890869172155
sS"i'm"
p77
F0.00077489345215032935
sS'settled'
p78
F6.4574454345860775e-05
sS'telephony_service'
p79
F0.00012914890869172155
sS'digitally'
p80
F0.00012914890869172155
sS'divide'
p81
F6.4574454345860775e-05
sS"'mozilla"
p82
F0.00012914890869172155
sS'drawcontours'
p83
F0.00012914890869172155
sS'mysqli'
p84
F0.0002582978173834431
sS'spoke'
p85
F0.00019372336303758234
sS'would'
p86
F0.0012914890869172154
sS'500px'
p87
F6.4574454345860775e-05
sS'gloss'
p88
F0.00012914890869172155
sS'setnote'
p89
F6.4574454345860775e-05
sS'call'
p90
F0.0017435102673382409
sS'therefore'
p91
F0.00012914890869172155
sS'9_'
p92
F0.00019372336303758234
sS'recommend'
p93
F6.4574454345860775e-05
sS'preview'
p94
F0.0002582978173834431
sS'type'
p95
F0.0022601059021051272
sS'until'
p96
F0.00038744672607516468
sS'separated'
p97
F0.00012914890869172155
sS'funciona'
p98
F6.4574454345860775e-05
sS'relay'
p99
F0.00038744672607516468
sS'bullshitting'
p100
F0.00012914890869172155
sS'naive'
p101
F0.00012914890869172155
sS'7510'
p102
F0.0002582978173834431
sS'yahoo'
p103
F0.00019372336303758234
sS'aware'
p104
F0.00019372336303758234
sS'99'
p105
F0.00012914890869172155
sS'phone'
p106
F0.00045202118042102544
sS'warm'
p107
F6.4574454345860775e-05
sS'rip'
p108
F6.4574454345860775e-05
sS'adware'
p109
F6.4574454345860775e-05
sS'95'
p110
F0.0002582978173834431
sS'addon'
p111
F6.4574454345860775e-05
sS'me'
p112
F0.0025184037194885705
sS'md'
p113
F0.00058117008911274701
sS'join'
p114
F0.00012914890869172155
sS"hawat's"
p115
F6.4574454345860775e-05
sS'err'
p116
F0.0033578716259847602
sS'setup'
p117
F0.00012914890869172155
sS'work'
p118
F0.00012914890869172155
sS'doctype'
p119
F6.4574454345860775e-05
sS'sethttpmethod'
p120
F0.00019372336303758234
sS'my'
p121
F0.0039390417150975071
sS'example'
p122
F0.00071031899780446854
sS'publishing'
p123
F6.4574454345860775e-05
sS'wang'
p124
F6.4574454345860775e-05
sS'give'
p125
F0.00012914890869172155
sS'555'
p126
F0.00012914890869172155
sS'india'
p127
F6.4574454345860775e-05
sS'uat'
p128
F6.4574454345860775e-05
sS'want'
p129
F0.00083946790649619006
sS'rig'
p130
F6.4574454345860775e-05
sS'times'
p131
F0.00019372336303758234
sS'win8'
p132
F0.00012914890869172155
sS'end'
p133
F0.0036161694433682035
sS'recovery'
p134
F0.00012914890869172155
sS'addreplyto'
p135
F6.4574454345860775e-05
sS"kong's"
p136
F6.4574454345860775e-05
sS'scikit'
p137
F6.4574454345860775e-05
sS'drying'
p138
F6.4574454345860775e-05
sS'feature'
p139
F0.00019372336303758234
sS'how'
p140
F0.00090404236084205088
sS'hot'
p141
F0.00038744672607516468
sS'playback'
p142
F0.00012914890869172155
sS'bunt'
p143
F6.4574454345860775e-05
sS'answer'
p144
F0.00019372336303758234
sS'config'
p145
F0.0002582978173834431
sS'description'
p146
F0.0002582978173834431
sS'mess'
p147
F0.0002582978173834431
sS'after'
p148
F0.00090404236084205088
sS'pm'
p149
F0.00012914890869172155
sS'dell'
p150
F0.0005165956347668862
sS'londo'
p151
F0.0002582978173834431
sS'wrong'
p152
F0.00032287227172930386
sS'fat'
p153
F6.4574454345860775e-05
sS'lat'
p154
F6.4574454345860775e-05
sS'law'
p155
F6.4574454345860775e-05
sS'types'
p156
F6.4574454345860775e-05
sS'new_outgoing_call'
p157
F0.00012914890869172155
sS'period'
p158
F0.00019372336303758234
sS'effective'
p159
F0.0002582978173834431
sS'bootstrap'
p160
F0.00038744672607516468
sS'appreciate'
p161
F6.4574454345860775e-05
sS'psychologist'
p162
F6.4574454345860775e-05
sS'sp2p'
p163
F6.4574454345860775e-05
sS'enter'
p164
F0.00019372336303758234
sS'1000'
p165
F0.00012914890869172155
sS'order'
p166
F6.4574454345860775e-05
sS'triggering'
p167
F6.4574454345860775e-05
sS'wine'
p168
F0.00019372336303758234
sS'exotic'
p169
F6.4574454345860775e-05
sS"cell's"
p170
F6.4574454345860775e-05
sS'over'
p171
F0.00019372336303758234
sS'thesis'
p172
F0.00012914890869172155
sS'keyboard'
p173
F0.00077489345215032935
sS'responsive'
p174
F0.00032287227172930386
sS'activating'
p175
F0.00012914890869172155
sS'before'
p176
F0.00032287227172930386
sS'scoring'
p177
F6.4574454345860775e-05
sS'contourarea'
p178
F0.00012914890869172155
sS'7450'
p179
F0.00012914890869172155
sS'somewhere'
p180
F6.4574454345860775e-05
sS'fix'
p181
F6.4574454345860775e-05
sS'writing'
p182
F6.4574454345860775e-05
sS'better'
p183
F0.00012914890869172155
sS'fade'
p184
F0.0002582978173834431
sS'weeks'
p185
F0.00019372336303758234
sS'variables'
p186
F6.4574454345860775e-05
sS'then'
p187
F0.0005165956347668862
sS'them'
p188
F0.00064574454345860772
sS'safe'
p189
F6.4574454345860775e-05
sS'8gb'
p190
F6.4574454345860775e-05
sS'curl_close'
p191
F0.00012914890869172155
sS'detectusingthresh'
p192
F0.0002582978173834431
sS'they'
p193
F0.00045202118042102544
sS'resizing'
p194
F6.4574454345860775e-05
sS'yourself'
p195
F6.4574454345860775e-05
sS'shadows'
p196
F0.00012914890869172155
sS'customstyles'
p197
F6.4574454345860775e-05
sS'oxygen'
p198
F6.4574454345860775e-05
sS'l'
F0.001162340178225494
sS'explode'
p199
F6.4574454345860775e-05
sS'each'
p200
F0.0002582978173834431
sS'went'
p201
F6.4574454345860775e-05
sS'side'
p202
F0.00019372336303758234
sS'bone'
p203
F0.00012914890869172155
sS'mean'
p204
F6.4574454345860775e-05
sS'prawa'
p205
F6.4574454345860775e-05
sS'cv_32sc1'
p206
F0.00012914890869172155
sS'apicontroller'
p207
F0.00012914890869172155
sS'magneto'
p208
F6.4574454345860775e-05
sS'imwrite'
p209
F0.00064574454345860772
sS'extract'
p210
F0.00012914890869172155
sS'rt'
p211
F0.00012914890869172155
sS'fiction'
p212
F6.4574454345860775e-05
sS'goo'
p213
F0.00058117008911274701
sS'network'
p214
F6.4574454345860775e-05
sS'driving'
p215
F6.4574454345860775e-05
sS'crucial'
p216
F6.4574454345860775e-05
sS'content'
p217
F0.0021955314477592664
sS're'
p218
F0.0002582978173834431
sS'ra'
p219
F6.4574454345860775e-05
sS'got'
p220
F0.00012914890869172155
sS'size'
p221
F0.00090404236084205088
sS'pro_recordedcalls_automatic'
p222
F0.00012914890869172155
sS'adminemails_array'
p223
F0.00012914890869172155
sS'enablecors'
p224
F0.0002582978173834431
sS'barrier'
p225
F6.4574454345860775e-05
sS"doesn't"
p226
F0.0002582978173834431
sS'free'
p227
F6.4574454345860775e-05
sS'sheet'
p228
F0.0005165956347668862
sS'detecting'
p229
F0.00012914890869172155
sS'created'
p230
F0.00012914890869172155
sS'starts'
p231
F6.4574454345860775e-05
sS'days'
p232
F0.00012914890869172155
sS'filter'
p233
F6.4574454345860775e-05
sS'aspnetcdn'
p234
F6.4574454345860775e-05
sS"today's"
p235
F6.4574454345860775e-05
sS'onto'
p236
F6.4574454345860775e-05
sS'purpose'
p237
F6.4574454345860775e-05
sS'rand'
p238
F0.00012914890869172155
sS'already'
p239
F0.00012914890869172155
sS'daunting'
p240
F0.00019372336303758234
sS'features'
p241
F6.4574454345860775e-05
sS'snagit'
p242
F0.00012914890869172155
sS'coding'
p243
F0.00012914890869172155
sS'primary'
p244
F6.4574454345860775e-05
sS'channels'
p245
F6.4574454345860775e-05
sS'meshes'
p246
F6.4574454345860775e-05
sS'another'
p247
F0.00096861681518791169
sS'prtscr'
p248
F0.0005165956347668862
sS'service'
p249
F0.00012914890869172155
sS'mailcounter'
p250
F0.00071031899780446854
sS'top'
p251
F0.00012914890869172155
sS'1500'
p252
F0.0002582978173834431
sS'ballistix'
p253
F6.4574454345860775e-05
sS'needed'
p254
F0.00045202118042102544
sS'parsefloat'
p255
F0.00012914890869172155
sS'too'
p256
F0.00012914890869172155
sS'legs'
p257
F6.4574454345860775e-05
sS'listen'
p258
F0.00012914890869172155
sS'hacer'
p259
F6.4574454345860775e-05
sS'setaudiosource'
p260
F0.00012914890869172155
sS'boostrap'
p261
F6.4574454345860775e-05
sS'centered'
p262
F0.00012914890869172155
sS'tool'
p263
F0.0002582978173834431
sS'took'
p264
F0.00012914890869172155
sS'gyp'
p265
F0.00012914890869172155
sS'spoiler'
p266
F0.00012914890869172155
sS'showed'
p267
F6.4574454345860775e-05
sS'campo'
p268
F0.0002582978173834431
sS'setoutgoingnumber'
p269
F0.0002582978173834431
sS'project'
p270
F0.00032287227172930386
sS'matter'
p271
F6.4574454345860775e-05
sS'powers'
p272
F6.4574454345860775e-05
sS'mini'
p273
F0.00012914890869172155
sS'bs4'
p274
F0.00012914890869172155
sS'ram'
p275
F6.4574454345860775e-05
sS'talking'
p276
F0.00012914890869172155
sS'seem'
p277
F6.4574454345860775e-05
sS'mins'
p278
F6.4574454345860775e-05
sS'tells'
p279
F0.00012914890869172155
sS"dic's"
p280
F6.4574454345860775e-05
sS'secure'
p281
F6.4574454345860775e-05
sS'shawky'
p282
F0.00012914890869172155
sS'racers'
p283
F6.4574454345860775e-05
sS'causing'
p284
F6.4574454345860775e-05
sS'formkalk'
p285
F0.0005165956347668862
sS'nobody'
p286
F6.4574454345860775e-05
sS'though'
p287
F6.4574454345860775e-05
sS'mother'
p288
F6.4574454345860775e-05
sS'regular'
p289
F6.4574454345860775e-05
sS'mouth'
p290
F6.4574454345860775e-05
sS'scripts'
p291
F6.4574454345860775e-05
sS'phase'
p292
F0.0002582978173834431
sS'episode'
p293
F0.00012914890869172155
sS'loadstring'
p294
F0.00012914890869172155
sS'findcontours'
p295
F0.00012914890869172155
sS'calculated'
p296
F6.4574454345860775e-05
sS'clock'
p297
F6.4574454345860775e-05
sS'm'
F0.0002582978173834431
sS'leaflet'
p298
F0.00012914890869172155
sS'row_pointer'
p299
F0.00019372336303758234
sS'definitely'
p300
F6.4574454345860775e-05
sS'inaccuracies'
p301
F6.4574454345860775e-05
sS'fraz456'
p302
F0.00012914890869172155
sS'mailing'
p303
F6.4574454345860775e-05
sS'section'
p304
F0.00064574454345860772
sS'came'
p305
F0.00012914890869172155
sS'prim'
p306
F6.4574454345860775e-05
sS'setaudioencoder'
p307
F0.00012914890869172155
sS'pops'
p308
F0.00012914890869172155
sS'solutions'
p309
F0.00012914890869172155
sS'randomize'
p310
F6.4574454345860775e-05
sS'alcohols'
p311
F0.0002582978173834431
sS'd1'
p312
F6.4574454345860775e-05
sS'submit'
p313
F6.4574454345860775e-05
sS'1xvaecj'
p314
F0.00012914890869172155
sS'chain_approx_simple'
p315
F0.00012914890869172155
sS'menu'
p316
F0.00064574454345860772
sS'explain'
p317
F0.00019372336303758234
sS'appreciated'
p318
F0.0002582978173834431
sS'touched'
p319
F0.0002582978173834431
sS'quieres'
p320
F6.4574454345860775e-05
sS'webrtc'
p321
F0.0002582978173834431
sS'disconnecting'
p322
F6.4574454345860775e-05
sS'do'
p323
F0.0018080847216841018
sS'sms'
p324
F6.4574454345860775e-05
sS'de'
p325
F6.4574454345860775e-05
sS'stop'
p326
F0.00058117008911274701
sS'scalable'
p327
F6.4574454345860775e-05
sS'preferred'
p328
F6.4574454345860775e-05
sS'report'
p329
F6.4574454345860775e-05
sS'dw'
p330
F0.0002582978173834431
sS'unfortunately'
p331
F0.00012914890869172155
sS'bar'
p332
F0.0002582978173834431
sS'morph'
p333
F0.00012914890869172155
sS'method'
p334
F0.001162340178225494
sS'terabyte'
p335
F6.4574454345860775e-05
sS'release'
p336
F0.00012914890869172155
sS'extenstions'
p337
F6.4574454345860775e-05
sS'fair'
p338
F0.00012914890869172155
sS'motherboard'
p339
F6.4574454345860775e-05
sS'fromname'
p340
F6.4574454345860775e-05
sS'testing'
p341
F6.4574454345860775e-05
sS'detection'
p342
F0.00012914890869172155
sS'radius'
p343
F6.4574454345860775e-05
sS'result'
p344
F0.00096861681518791169
sS'recientes'
p345
F6.4574454345860775e-05
sS'fail'
p346
F0.00012914890869172155
sS'antiaging'
p347
F6.4574454345860775e-05
sS'best'
p348
F0.0002582978173834431
sS'subject'
p349
F0.00012914890869172155
sS'04'
p350
F6.4574454345860775e-05
sS'05'
p351
F0.00012914890869172155
sS"36'"
p352
F0.00012914890869172155
sS'wikipedia'
p353
F0.0002582978173834431
sS'filename'
p354
F0.0010331912695337724
sS'unable'
p355
F0.00012914890869172155
sS'simplest'
p356
F0.00012914890869172155
sS'drawn'
p357
F6.4574454345860775e-05
sS'we'
p358
F0.00064574454345860772
sS'wd'
p359
F6.4574454345860775e-05
sS'uszip'
p360
F0.0002582978173834431
sS'wm'
p361
F0.00012914890869172155
sS'however'
p362
F0.0005165956347668862
sS'thresh_binary_inv'
p363
F0.00012914890869172155
sS'vale'
p364
F6.4574454345860775e-05
sS'wp'
p365
F0.00012914890869172155
sS'loadlibrary'
p366
F0.00012914890869172155
sS'piczel'
p367
F0.00012914890869172155
sS'urlwithstring'
p368
F0.00019372336303758234
sS'brown'
p369
F6.4574454345860775e-05
sS'country'
p370
F0.0015497869043006587
sS'argus'
p371
F0.00012914890869172155
sS'coc'
p372
F6.4574454345860775e-05
sS'faces'
p373
F0.00012914890869172155
sS'requests'
p374
F0.00038744672607516468
sS'com'
p375
F0.0076197856128115719
sS'col'
p376
F0.0013560635412630763
sS"'send"
p377
F6.4574454345860775e-05
sS'pre'
p378
F0.0049076585302854194
sS'nodejs'
p379
F0.00012914890869172155
sS'morph_rect'
p380
F0.00012914890869172155
sS'appeared'
p381
F6.4574454345860775e-05
sS'connection'
p382
F6.4574454345860775e-05
sS'fkin'
p383
F6.4574454345860775e-05
sS'height'
p384
F6.4574454345860775e-05
sS'active'
p385
F0.0002582978173834431
sS'written'
p386
F6.4574454345860775e-05
sS"'zip'"
p387
F0.00012914890869172155
sS'loaded'
p388
F0.00012914890869172155
sS'255'
p389
F0.00012914890869172155
sS'asks'
p390
F6.4574454345860775e-05
sS'hay'
p391
F6.4574454345860775e-05
sS'chrome'
p392
F0.00032287227172930386
sS'fro'
p393
F0.00019372336303758234
sS'three'
p394
F0.00019372336303758234
sS'been'
p395
F0.00058117008911274701
sS'confident'
p396
F6.4574454345860775e-05
sS'much'
p397
F0.0002582978173834431
sS'frz'
p398
F6.4574454345860775e-05
sS'website'
p399
F0.00064574454345860772
sS'life'
p400
F0.00032287227172930386
sS'functionname'
p401
F6.4574454345860775e-05
sS'catch'
p402
F0.0012269146325713548
sS'worked'
p403
F6.4574454345860775e-05
sS'colored'
p404
F6.4574454345860775e-05
sS'applied'
p405
F0.00012914890869172155
sS'exception'
p406
F0.003228722717293039
sS'incoming_or_outgoing'
p407
F0.0002582978173834431
sS'n'
F6.4574454345860775e-05
sS'lesser'
p408
F0.00012914890869172155
sS'viii'
p409
F6.4574454345860775e-05
sS'applies'
p410
F6.4574454345860775e-05
sS'cracked'
p411
F6.4574454345860775e-05
sS"echo'd"
p412
F0.00012914890869172155
sS'k'
F0.00038744672607516468
sS'procedure'
p413
F6.4574454345860775e-05
sS'remembering'
p414
F6.4574454345860775e-05
sS'2735'
p415
F6.4574454345860775e-05
sS'imgproc'
p416
F0.0021955314477592664
sS'cons'
p417
F6.4574454345860775e-05
sS'2730'
p418
F6.4574454345860775e-05
sS'mexico'
p419
F6.4574454345860775e-05
sS'is'
p420
F0.0085884024279994833
sS'dumped'
p421
F6.4574454345860775e-05
sS'it'
p422
F0.0065865943432777997
sS'57309'
p423
F6.4574454345860775e-05
sS'io'
p424
F0.00012914890869172155
sS'in'
p425
F0.0060054242541650524
sS'ie'
p426
F6.4574454345860775e-05
sS'id'
p427
F0.001162340178225494
sS'if'
p428
F0.0044556373498643937
sS'hong'
p429
F6.4574454345860775e-05
sS'nike'
p430
F0.00038744672607516468
sS'things'
p431
F0.00019372336303758234
sS'make'
p432
F0.0010331912695337724
sS'complex'
p433
F6.4574454345860775e-05
sS'potentially'
p434
F0.00019372336303758234
sS'urlencoded'
p435
F0.00019372336303758234
sS'several'
p436
F0.00012914890869172155
sS'native_library_name'
p437
F0.00012914890869172155
sS'clicking'
p438
F6.4574454345860775e-05
sS'nil'
p439
F0.00058117008911274701
sS'startrecording'
p440
F0.00064574454345860772
sS'phonestatelistener'
p441
F0.00077489345215032935
sS'characters'
p442
F0.00045202118042102544
sS'9550'
p443
F0.00012914890869172155
sS'on'
p444
F0.0049722329846312802
sS'aka'
p445
F6.4574454345860775e-05
sS'vva'
p446
F6.4574454345860775e-05
sS'cycle'
p447
F0.00012914890869172155
sS'mentioning'
p448
F6.4574454345860775e-05
sS'gaussianblur'
p449
F0.00012914890869172155
sS'webstore'
p450
F6.4574454345860775e-05
sS'programs'
p451
F0.00019372336303758234
sS'changes'
p452
F0.00019372336303758234
sS'game'
p453
F6.4574454345860775e-05
sS'testcontroller'
p454
F0.00012914890869172155
sS'contact'
p455
F0.00077489345215032935
sS'convertto'
p456
F0.00012914890869172155
sS'the'
p457
F0.02169701666020922
sS'left'
p458
F0.00012914890869172155
sS'just'
p459
F0.0010331912695337724
sS'sentence'
p460
F0.00019372336303758234
sS'laptop'
p461
F0.00083946790649619006
sS'kalk'
p462
F0.00012914890869172155
sS'thanks'
p463
F0.0005165956347668862
sS'human'
p464
F0.00019372336303758234
sS'yes'
p465
F0.00038744672607516468
sS'yet'
p466
F0.0002582978173834431
sS'previous'
p467
F0.00012914890869172155
sS'buyers'
p468
F0.00012914890869172155
sS'regarded'
p469
F6.4574454345860775e-05
sS'character'
p470
F0.00019372336303758234
sS'opencv'
p471
F0.0010331912695337724
sS'malwarebytes'
p472
F0.00012914890869172155
sS'easy'
p473
F6.4574454345860775e-05
sS'elp'
p474
F6.4574454345860775e-05
sS'has'
p475
F0.001162340178225494
sS'ultrabookreview'
p476
F0.00012914890869172155
sS'opr'
p477
F0.00012914890869172155
sS'microcontroller'
p478
F6.4574454345860775e-05
sS'dnatechindia'
p479
F0.00012914890869172155
sS'possible'
p480
F0.0002582978173834431
sS'boxes'
p481
F6.4574454345860775e-05
sS'background'
p482
F0.0005165956347668862
sS'png'
p483
F0.00045202118042102544
sS'app_l'
p484
F0.00012914890869172155
sS'debounce'
p485
F0.00012914890869172155
sS'performing'
p486
F6.4574454345860775e-05
sS'50'
p487
F0.0002582978173834431
sS'specific'
p488
F0.00012914890869172155
sS'steps'
p489
F0.00019372336303758234
sS'getnetworkcountryiso'
p490
F0.00012914890869172155
sS'beneficial'
p491
F6.4574454345860775e-05
sS'right'
p492
F0.00096861681518791169
sS'old'
p493
F0.00019372336303758234
sS'people'
p494
F0.00019372336303758234
sS'successfully'
p495
F6.4574454345860775e-05
sS'yacreader'
p496
F0.00019372336303758234
sS'animate'
p497
F6.4574454345860775e-05
sS'tutorial'
p498
F0.00012914890869172155
sS"ssh'"
p499
F6.4574454345860775e-05
sS'uncoated'
p500
F0.00012914890869172155
sS'setoutputfile'
p501
F0.00012914890869172155
sS'for'
p502
F0.0052951052563605834
sS'everything'
p503
F0.00058117008911274701
sS'num_rows'
p504
F0.00012914890869172155
sS'phonerescue'
p505
F0.00012914890869172155
sS'423'
p506
F0.0002582978173834431
sS'beating'
p507
F6.4574454345860775e-05
sS'booking'
p508
F6.4574454345860775e-05
sS'core'
p509
F0.0010977657238796332
sS'ww1'
p510
F6.4574454345860775e-05
sS'burn'
p511
F6.4574454345860775e-05
sS'viewer'
p512
F6.4574454345860775e-05
sS'cors'
p513
F0.00012914890869172155
sS'post'
p514
F0.00090404236084205088
sS'super'
p515
F0.00012914890869172155
sS'recorderstopped'
p516
F0.0002582978173834431
sS'months'
p517
F6.4574454345860775e-05
sS'o'
F0.00038744672607516468
sS'time_zone'
p518
F0.00012914890869172155
sS'plus'
p519
F6.4574454345860775e-05
sS'anime'
p520
F6.4574454345860775e-05
sS'suggestions'
p521
F6.4574454345860775e-05
sS'autohotkey'
p522
F0.00012914890869172155
sS'presence'
p523
F0.00012914890869172155
sS'puzzle'
p524
F6.4574454345860775e-05
sS'float'
p525
F6.4574454345860775e-05
sS'www'
p526
F0.0034870205346764819
sS'down'
p527
F0.0012914890869172154
sS'beings'
p528
F0.00012914890869172155
sS'raises'
p529
F6.4574454345860775e-05
sS'lewa'
p530
F6.4574454345860775e-05
sS'git'
p531
F0.00012914890869172155
sS'cyfrapierwsza'
p532
F0.00038744672607516468
sS'support'
p533
F0.0002582978173834431
sS'initial'
p534
F6.4574454345860775e-05
sS'wrinkle_thresh_dilation'
p535
F0.00012914890869172155
sS'width'
p536
F0.00012914890869172155
sS'accordingly'
p537
F6.4574454345860775e-05
sS'influencing'
p538
F6.4574454345860775e-05
sS'way'
p539
F0.00071031899780446854
sS'was'
p540
F0.00077489345215032935
sS'emulated'
p541
F0.00012914890869172155
sS'head'
p542
F0.0002582978173834431
sS'form'
p543
F0.00045202118042102544
sS'python27'
p544
F0.00012914890869172155
sS'wrinkle_guo'
p545
F0.00012914890869172155
sS'heat'
p546
F0.0002582978173834431
sS'true'
p547
F0.0020663825390675448
sS'reset'
p548
F0.00019372336303758234
sS'2214'
p549
F0.00012914890869172155
sS'inside'
p550
F0.00045202118042102544
sS'attached'
p551
F6.4574454345860775e-05
sS'devices'
p552
F6.4574454345860775e-05
sS'20px'
p553
F6.4574454345860775e-05
sS'delete'
p554
F0.0002582978173834431
sS'mails'
p555
F0.00038744672607516468
sS'liberal'
p556
F6.4574454345860775e-05
sS'abstract'
p557
F0.00064574454345860772
sS'proves'
p558
F6.4574454345860775e-05
sS'exist'
p559
F6.4574454345860775e-05
sS'checa'
p560
F6.4574454345860775e-05
sS'timezone'
p561
F0.00038744672607516468
sS'lungs'
p562
F0.00012914890869172155
sS'no'
p563
F0.0010977657238796332
sS'4510'
p564
F0.00012914890869172155
sS'4511'
p565
F0.00012914890869172155
sS'when'
p566
F0.0018726591760299626
sS'readonly'
p567
F6.4574454345860775e-05
sS'interested'
p568
F6.4574454345860775e-05
sS'test'
p569
F0.0016789358129923801
sS'jenkins'
p570
F6.4574454345860775e-05
sS'developers'
p571
F6.4574454345860775e-05
sS'superfluous'
p572
F6.4574454345860775e-05
sS'31634754'
p573
F0.00012914890869172155
sS'setallowsanyhttpscertificate'
p574
F0.00019372336303758234
sS'livestreamer'
p575
F0.00012914890869172155
sS'helps'
p576
F0.00012914890869172155
sS'felt'
p577
F0.00012914890869172155
sS'update'
p578
F0.00012914890869172155
sS"let's"
p579
F6.4574454345860775e-05
sS"'d"
p580
F0.00012914890869172155
sS'intent'
p581
F0.00077489345215032935
sS'livestreamed'
p582
F0.00012914890869172155
sS'sql'
p583
F0.00077489345215032935
sS'onerrorlistener'
p584
F0.00038744672607516468
sS'printscreen'
p585
F0.0014206379956089371
sS'happening'
p586
F6.4574454345860775e-05
sS'assume'
p587
F0.0002582978173834431
sS'proposed'
p588
F6.4574454345860775e-05
sS'interval'
p589
F6.4574454345860775e-05
sS'together'
p590
F0.00019372336303758234
sS'remapped'
p591
F0.00012914890869172155
sS'frmredirect'
p592
F6.4574454345860775e-05
sS'time'
p593
F0.00064574454345860772
sS'push'
p594
F6.4574454345860775e-05
sS'hiit'
p595
F0.0002582978173834431
sS'newbie'
p596
F0.00012914890869172155
sS'global'
p597
F0.0002582978173834431
sS'known'
p598
F0.00019372336303758234
sS'manager'
p599
F0.0002582978173834431
sS'phonenumber'
p600
F0.0002582978173834431
sS'skin'
p601
F0.00032287227172930386
sS'row'
p602
F0.0010977657238796332
sS'suicide'
p603
F0.00012914890869172155
sS'addmenu'
p604
F6.4574454345860775e-05
sS'father'
p605
F6.4574454345860775e-05
sS'0'
F0.0030349993542554566
sS'must'
p606
F0.00019372336303758234
sS'aspx'
p607
F0.00090404236084205088
sS'addaddress'
p608
F6.4574454345860775e-05
sS'matofpoint'
p609
F0.00038744672607516468
sS'string'
p610
F0.0035515949890223427
sS'nsdictionary'
p611
F0.00038744672607516468
sS'choice'
p612
F6.4574454345860775e-05
sS'leathered'
p613
F6.4574454345860775e-05
sS'entries'
p614
F0.00012914890869172155
sS'word'
p615
F0.00032287227172930386
sS'emphasized'
p616
F6.4574454345860775e-05
sS'exact'
p617
F6.4574454345860775e-05
sS'minute'
p618
F6.4574454345860775e-05
sS'perceived'
p619
F0.00012914890869172155
sS'impressive'
p620
F6.4574454345860775e-05
sS'presented'
p621
F0.00012914890869172155
sS'did'
p622
F0.00019372336303758234
sS'turns'
p623
F6.4574454345860775e-05
sS'posts'
p624
F0.00019372336303758234
sS'dic'
p625
F6.4574454345860775e-05
sS'leave'
p626
F6.4574454345860775e-05
sS'p'
F0.04074648069223815
sS'diy'
p627
F6.4574454345860775e-05
sS'team'
p628
F0.0005165956347668862
sS'calculatricedegrossesse'
p629
F0.00012914890869172155
sS'div'
p630
F0.0059408497998191916
sS'brave'
p631
F0.00019372336303758234
sS'says'
p632
F6.4574454345860775e-05
sS'setonerrorlistener'
p633
F0.00012914890869172155
sS'sign'
p634
F0.0002582978173834431
sS'cost'
p635
F6.4574454345860775e-05
sS'shirts'
p636
F0.00032287227172930386
sS'pls'
p637
F6.4574454345860775e-05
sS'integervalue'
p638
F0.00019372336303758234
sS'goes'
p639
F0.00012914890869172155
sS'appear'
p640
F6.4574454345860775e-05
sS'sappho'
p641
F6.4574454345860775e-05
sS'phonecallstartenddetector'
p642
F0.00077489345215032935
sS'beautifulsoup'
p643
F0.0005165956347668862
sS'current'
p644
F6.4574454345860775e-05
sS'stopandreleaserecorder'
p645
F0.00090404236084205088
sS'paragraph'
p646
F0.00032287227172930386
sS'template'
p647
F0.00071031899780446854
sS'homeworld'
p648
F0.00012914890869172155
sS'postlength'
p649
F0.00038744672607516468
sS'ms'
p650
F6.4574454345860775e-05
sS'dropdown'
p651
F0.0016789358129923801
sS'learn'
p652
F0.0002582978173834431
sS'860k'
p653
F6.4574454345860775e-05
sS'fluke'
p654
F0.00012914890869172155
sS'baseball'
p655
F0.00012914890869172155
sS'address'
p656
F0.00045202118042102544
sS'galileo'
p657
F6.4574454345860775e-05
sS'along'
p658
F6.4574454345860775e-05
sS'appears'
p659
F0.00019372336303758234
sS'change'
p660
F0.00071031899780446854
sS'box'
p661
F0.00019372336303758234
sS'sending'
p662
F0.0002582978173834431
sS'incoming'
p663
F0.0002582978173834431
sS'ini_set'
p664
F0.00012914890869172155
sS'shift'
p665
F0.00064574454345860772
sS'overrides'
p666
F0.00012914890869172155
sS'metasmoke'
p667
F6.4574454345860775e-05
sS'bot'
p668
F6.4574454345860775e-05
sS'commonly'
p669
F6.4574454345860775e-05
sS'altbody'
p670
F6.4574454345860775e-05
sS'navigation'
p671
F0.0002582978173834431
sS'macintosh'
p672
F0.00012914890869172155
sS'binaryhexconverter'
p673
F0.00012914890869172155
sS'extra'
p674
F0.00012914890869172155
sS'prefer'
p675
F6.4574454345860775e-05
sS'listen_call_state'
p676
F0.00012914890869172155
sS'bookmarks'
p677
F0.00012914890869172155
sS'regex'
p678
F0.00012914890869172155
sS'terminal'
p679
F6.4574454345860775e-05
sS'working'
p680
F0.00058117008911274701
sS'positive'
p681
F6.4574454345860775e-05
sS'pero'
p682
F6.4574454345860775e-05
sS'412761'
p683
F0.00012914890869172155
sS'connector'
p684
F6.4574454345860775e-05
sS'stylesheet'
p685
F0.0002582978173834431
sS'handler'
p686
F0.0005165956347668862
sS'iphone'
p687
F0.0002582978173834431
sS'https'
p688
F0.002905850445563735
sS'msg'
p689
F6.4574454345860775e-05
sS'nsasciistringencoding'
p690
F0.00019372336303758234
sS'menstrual'
p691
F0.00012914890869172155
sS'sessions'
p692
F6.4574454345860775e-05
sS'afford'
p693
F0.00012914890869172155
sS'ua'
p694
F6.4574454345860775e-05
sS'envelope'
p695
F0.00012914890869172155
sS'visual'
p696
F0.00058117008911274701
sS'appendix'
p697
F6.4574454345860775e-05
sS'far'
p698
F0.00032287227172930386
sS'endomondo'
p699
F0.00019372336303758234
sS'organizations'
p700
F6.4574454345860775e-05
sS"'deliverylocation'"
p701
F6.4574454345860775e-05
sS'car'
p702
F0.00019372336303758234
sS'soul'
p703
F0.0002582978173834431
sS'soup'
p704
F0.0005165956347668862
sS'printing'
p705
F0.00012914890869172155
sS'values'
p706
F0.0002582978173834431
sS'can'
p707
F0.0027121270825261525
sS'iframe'
p708
F0.00012914890869172155
sS'following'
p709
F0.00058117008911274701
sS'making'
p710
F0.00012914890869172155
sS'heart'
p711
F0.00019372336303758234
sS'crazy'
p712
F0.00012914890869172155
sS'figure'
p713
F0.0002582978173834431
sS'qq571618339'
p714
F6.4574454345860775e-05
sS'attribute'
p715
F0.00012914890869172155
sS'awesome'
p716
F6.4574454345860775e-05
sS"didn't"
p717
F0.00045202118042102544
sS'fuck'
p718
F6.4574454345860775e-05
sS'sample'
p719
F0.0002582978173834431
sS'heard'
p720
F6.4574454345860775e-05
sS'performed'
p721
F0.00012914890869172155
sS'unhandled'
p722
F6.4574454345860775e-05
sS'lxml'
p723
F0.00038744672607516468
sS'requirements'
p724
F6.4574454345860775e-05
sS'plantbased'
p725
F6.4574454345860775e-05
sS'56789'
p726
F6.4574454345860775e-05
sS'write'
p727
F0.00032287227172930386
sS'charset'
p728
F0.00012914890869172155
sS'connect_errno'
p729
F0.00012914890869172155
sS'brain'
p730
F6.4574454345860775e-05
sS'1'
F0.0021955314477592664
sS'query'
p731
F0.00064574454345860772
sS'foreach'
p732
F6.4574454345860775e-05
sS'carname'
p733
F6.4574454345860775e-05
sS'map'
p734
F0.00032287227172930386
sS'144'
p735
F0.00012914890869172155
sS'mat'
p736
F0.0016789358129923801
sS'crashes'
p737
F6.4574454345860775e-05
sS'may'
p738
F0.00038744672607516468
sS'clone'
p739
F0.0002582978173834431
sS'148'
p740
F0.0002582978173834431
sS'voice_call'
p741
F0.00012914890869172155
sS'iiiiiiiiiiiii'
p742
F0.00012914890869172155
sS'mac'
p743
F0.00032287227172930386
sS'socket'
p744
F6.4574454345860775e-05
sS'e_all'
p745
F0.00012914890869172155
sS'date'
p746
F0.0027121270825261525
sS'such'
p747
F0.00038744672607516468
sS'data'
p748
F0.0016789358129923801
sS"'user"
p749
F0.00012914890869172155
sS'man'
p750
F0.00012914890869172155
sS'liquid'
p751
F6.4574454345860775e-05
sS'conscious'
p752
F6.4574454345860775e-05
sS'ss'
p753
F0.00012914890869172155
sS'approximation'
p754
F0.0002582978173834431
sS'q'
F0.0005165956347668862
sS'switch'
p755
F0.00012914890869172155
sS'so'
p756
F0.0014206379956089371
sS'sm'
p757
F6.4574454345860775e-05
sS'pulled'
p758
F6.4574454345860775e-05
sS'gesture'
p759
F0.00012914890869172155
sS'msvs_version'
p760
F0.00012914890869172155
sS'shoes'
p761
F0.00019372336303758234
sS'rollo'
p762
F6.4574454345860775e-05
sS'chatbot'
p763
F0.0002582978173834431
sS'cols'
p764
F0.0002582978173834431
sS'spreadsheet'
p765
F6.4574454345860775e-05
sS'ended'
p766
F0.00038744672607516468
sS'ssd'
p767
F0.00012914890869172155
sS'still'
p768
F0.00032287227172930386
sS'skeleton'
p769
F0.0002582978173834431
sS'equiv'
p770
F0.00012914890869172155
sS'group'
p771
F0.00019372336303758234
sS'monitor'
p772
F0.00012914890869172155
sS'qodmu'
p773
F0.00012914890869172155
sS'apex'
p774
F6.4574454345860775e-05
sS'platform'
p775
F0.00012914890869172155
sS'window'
p776
F6.4574454345860775e-05
sS'offers'
p777
F6.4574454345860775e-05
sS'14254203'
p778
F6.4574454345860775e-05
sS'mail'
p779
F0.00012914890869172155
sS'main'
p780
F0.00064574454345860772
sS'happened'
p781
F0.00019372336303758234
sS'non'
p782
F0.00019372336303758234
sS'blockquote'
p783
F0.00090404236084205088
sS'zygoteinit'
p784
F0.0010331912695337724
sS'disparate'
p785
F0.00012914890869172155
sS'views'
p786
F6.4574454345860775e-05
sS'matches'
p787
F0.00045202118042102544
sS'sooner'
p788
F6.4574454345860775e-05
sS'safari'
p789
F0.00012914890869172155
sS'not'
p790
F0.0035515949890223427
sS'now'
p791
F0.00058117008911274701
sS'execute'
p792
F6.4574454345860775e-05
sS'name'
p793
F0.00090404236084205088
sS'getinfobyzip'
p794
F0.00012914890869172155
sS'gopnik'
p795
F6.4574454345860775e-05
sS'possibilities'
p796
F0.00012914890869172155
sS'synchronize'
p797
F0.00012914890869172155
sS'stackexchange'
p798
F0.00019372336303758234
sS'message_body'
p799
F0.00012914890869172155
sS'el'
p800
F6.4574454345860775e-05
sS'en'
p801
F0.00058117008911274701
sS'ee'
p802
F6.4574454345860775e-05
sS'arg1'
p803
F0.0005165956347668862
sS'arg2'
p804
F0.0005165956347668862
sS'onincomingcallstarted'
p805
F0.00064574454345860772
sS"'booktime'"
p806
F6.4574454345860775e-05
sS'gaussian'
p807
F0.00012914890869172155
sS'catching'
p808
F6.4574454345860775e-05
sS'die'
p809
F0.0005165956347668862
sS'happen'
p810
F6.4574454345860775e-05
sS'living'
p811
F0.0002582978173834431
sS'shown'
p812
F0.00038744672607516468
sS'container'
p813
F0.00032287227172930386
sS'space'
p814
F6.4574454345860775e-05
sS'furthermore'
p815
F6.4574454345860775e-05
sS'oncallstatechanged'
p816
F0.0005165956347668862
sS"z'ha'dum"
p817
F0.00012914890869172155
sS'looking'
p818
F0.0002582978173834431
sS'seriously'
p819
F6.4574454345860775e-05
sS'protected'
p820
F0.001162340178225494
sS'managed'
p821
F6.4574454345860775e-05
sS'responsedata'
p822
F0.00058117008911274701
sS'attended'
p823
F6.4574454345860775e-05
sS'args'
p824
F0.00012914890869172155
sS'possibility'
p825
F6.4574454345860775e-05
sS'quite'
p826
F6.4574454345860775e-05
sS'ajax'
p827
F0.00019372336303758234
sS'flyer'
p828
F0.00012914890869172155
sS'bayes'
p829
F0.00012914890869172155
sS'org'
p830
F0.0020663825390675448
sS'tienes'
p831
F6.4574454345860775e-05
sS'card'
p832
F6.4574454345860775e-05
sS'advance'
p833
F0.00012914890869172155
sS'training'
p834
F0.00012914890869172155
sS'milestones'
p835
F6.4574454345860775e-05
sS'prettyprint'
p836
F0.00012914890869172155
sS'fa'
p837
F0.00038744672607516468
sS'transition'
p838
F0.0002582978173834431
sS'nofollow'
p839
F0.0044556373498643937
sS'thing'
p840
F0.0002582978173834431
sS'place'
p841
F0.00012914890869172155
sS'khtml'
p842
F0.00012914890869172155
sS'swing'
p843
F6.4574454345860775e-05
sS'routes'
p844
F0.0002582978173834431
sS'think'
p845
F0.00032287227172930386
sS'first'
p846
F0.00071031899780446854
sS'origin'
p847
F0.00012914890869172155
sS'8051'
p848
F6.4574454345860775e-05
sS'zad'
p849
F6.4574454345860775e-05
sS'one'
p850
F0.0010977657238796332
sS'walkthrough'
p851
F6.4574454345860775e-05
sS'simplified'
p852
F6.4574454345860775e-05
sS'specifically'
p853
F6.4574454345860775e-05
sS'mobile'
p854
F6.4574454345860775e-05
sS'vote'
p855
F6.4574454345860775e-05
sS'xs'
p856
F0.0005165956347668862
sS'message'
p857
F0.00038744672607516468
sS'open'
p858
F0.00019372336303758234
sS"'em"
p859
F6.4574454345860775e-05
sS'millions'
p860
F0.00012914890869172155
sS'city'
p861
F0.00077489345215032935
sS'1s'
p862
F0.0002582978173834431
sS'checked'
p863
F0.00019372336303758234
sS'plastic'
p864
F0.00012914890869172155
sS'anyone'
p865
F0.0002582978173834431
sS'cooling'
p866
F6.4574454345860775e-05
sS'2'
F0.0023246803564509881
sS'white'
p867
F0.00038744672607516468
sS'bits'
p868
F0.00019372336303758234
sS'gives'
p869
F0.00019372336303758234
sS'eyes'
p870
F6.4574454345860775e-05
sS'aurelia'
p871
F0.00012914890869172155
sS'mostly'
p872
F6.4574454345860775e-05
sS'that'
p873
F0.0038098928064057859
sS'continuous'
p874
F0.00019372336303758234
sS'padding'
p875
F0.00032287227172930386
sS'erectile'
p876
F6.4574454345860775e-05
sS'github'
p877
F0.00038744672607516468
sS'from_name_admin'
p878
F0.00012914890869172155
sS'copy'
p879
F0.00012914890869172155
sS'than'
p880
F0.00019372336303758234
sS"here's"
p881
F0.00038744672607516468
sS'11'
p882
F0.00012914890869172155
sS'10'
p883
F0.0052305308020147226
sS'12'
p884
F0.0002582978173834431
sS'15'
p885
F0.0046493607129019761
sS'third'
p886
F6.4574454345860775e-05
sS'17'
p887
F0.0045202118042102545
sS'16'
p888
F0.00019372336303758234
sS'24x7'
p889
F6.4574454345860775e-05
sS'dialogue'
p890
F0.00012914890869172155
sS"'bookdate'"
p891
F6.4574454345860775e-05
sS'r'
F0.00012914890869172155
sS'were'
p892
F0.00032287227172930386
sS'cards'
p893
F6.4574454345860775e-05
sS'indexat'
p894
F0.00012914890869172155
sS'deletefile'
p895
F0.0010331912695337724
sS'browser'
p896
F6.4574454345860775e-05
sS'and'
p897
F0.0086529768823453441
sS'outputted'
p898
F0.00012914890869172155
sS'turned'
p899
F6.4574454345860775e-05
sS'scorecard'
p900
F6.4574454345860775e-05
sS'say'
p901
F0.00012914890869172155
sS'rent'
p902
F0.00012914890869172155
sS'nsurlconnection'
p903
F0.00019372336303758234
sS'saw'
p904
F0.00012914890869172155
sS'any'
p905
F0.0017435102673382409
sS"'http"
p906
F0.00012914890869172155
sS'offering'
p907
F6.4574454345860775e-05
sS'ideas'
p908
F0.00012914890869172155
sS'note'
p909
F0.0005165956347668862
sS'take'
p910
F0.00032287227172930386
sS'online'
p911
F0.00019372336303758234
sS'personalized'
p912
F6.4574454345860775e-05
sS'channel'
p913
F6.4574454345860775e-05
sS'0xcb62c17'
p914
F6.4574454345860775e-05
sS'200'
p915
F0.0002582978173834431
sS'sure'
p916
F0.0005165956347668862
sS'pain'
p917
F0.00012914890869172155
sS'normal'
p918
F6.4574454345860775e-05
sS'track'
p919
F0.00019372336303758234
sS'decreasing'
p920
F6.4574454345860775e-05
sS'importantly'
p921
F6.4574454345860775e-05
sS'printed'
p922
F0.00012914890869172155
sS'sheets'
p923
F0.00012914890869172155
sS'pages'
p924
F0.00058117008911274701
sS'damage'
p925
F6.4574454345860775e-05
sS'cornflowerblue'
p926
F0.00012914890869172155
sS'especially'
p927
F6.4574454345860775e-05
sS'later'
p928
F0.00012914890869172155
sS'drive'
p929
F6.4574454345860775e-05
sS'ecaz'
p930
F6.4574454345860775e-05
sS"'display_errors'"
p931
F0.00012914890869172155
sS'accented'
p932
F0.00019372336303758234
sS'rating'
p933
F6.4574454345860775e-05
sS'show'
p934
F0.0002582978173834431
sS'spaces'
p935
F0.00012914890869172155
sS'hack'
p936
F6.4574454345860775e-05
sS'threshold'
p937
F0.0002582978173834431
sS'handlemessage'
p938
F0.0002582978173834431
sS'injection'
p939
F6.4574454345860775e-05
sS'ground'
p940
F0.00012914890869172155
sS'1umylg'
p941
F0.00012914890869172155
sS'upgrade'
p942
F6.4574454345860775e-05
sS'keyboard1'
p943
F0.00012914890869172155
sS'getstring'
p944
F0.00012914890869172155
sS'title'
p945
F0.00071031899780446854
sS'webapps'
p946
F6.4574454345860775e-05
sS'stained'
p947
F0.00012914890869172155
sS'3'
F0.0014852124499547979
sS'short'
p948
F0.00012914890869172155
sS'only'
p949
F0.00096861681518791169
sS'going'
p950
F6.4574454345860775e-05
sS'black'
p951
F0.00019372336303758234
sS'stain'
p952
F0.00012914890869172155
sS'overwritten'
p953
F6.4574454345860775e-05
sS'setoninfolistener'
p954
F0.00012914890869172155
sS'get'
p955
F0.0017435102673382409
sS'cannot'
p956
F0.00012914890869172155
sS'ssh'
p957
F0.00032287227172930386
sS'dye'
p958
F0.0005165956347668862
sS'clans'
p959
F6.4574454345860775e-05
sS'objectwithstring'
p960
F0.00019372336303758234
sS'secondary'
p961
F0.00012914890869172155
sS'regarding'
p962
F0.00012914890869172155
sS'initwithdata'
p963
F0.00019372336303758234
sS'seldom'
p964
F6.4574454345860775e-05
sS'pvw0kj'
p965
F0.00012914890869172155
sS'morning'
p966
F6.4574454345860775e-05
sS'stupid'
p967
F0.00012914890869172155
sS'error_reporting'
p968
F0.00012914890869172155
sS'mapped'
p969
F0.00012914890869172155
sS'where'
p970
F0.00038744672607516468
sS'husband'
p971
F6.4574454345860775e-05
sS'wiki'
p972
F0.0002582978173834431
sS'pane'
p973
F0.0002582978173834431
sS'relative'
p974
F6.4574454345860775e-05
sS'college'
p975
F6.4574454345860775e-05
sS'installer'
p976
F0.00012914890869172155
sS'sport'
p977
F0.00032287227172930386
sS'detect'
p978
F0.0002582978173834431
sS'getsheets'
p979
F6.4574454345860775e-05
sS'served'
p980
F6.4574454345860775e-05
sS'sites'
p981
F6.4574454345860775e-05
sS'enough'
p982
F0.0005165956347668862
sS'estas'
p983
F6.4574454345860775e-05
sS'between'
p984
F0.00045202118042102544
sS'import'
p985
F0.0016789358129923801
sS'across'
p986
F0.0002582978173834431
sS"'simple'"
p987
F6.4574454345860775e-05
sS'jobs'
p988
F6.4574454345860775e-05
sS'screen'
p989
F0.00058117008911274701
sS'hawat'
p990
F6.4574454345860775e-05
sS'js'
p991
F0.00045202118042102544
sS'datausingencoding'
p992
F0.00019372336303758234
sS'27'
p993
F0.00012914890869172155
sS'wrinkle_contrast'
p994
F0.00012914890869172155
sS'nsnumber'
p995
F0.00019372336303758234
sS'9nimbc'
p996
F0.00012914890869172155
sS'come'
p997
F0.00012914890869172155
sS'img'
p998
F0.0015497869043006587
sS'nill'
p999
F0.00012914890869172155
sS'many'
p1000
F0.00032287227172930386
sS's'
F0.00019372336303758234
sS'broadcastreceiver'
p1001
F0.0002582978173834431
sS"can't"
p1002
F0.0002582978173834431
sS'phpmyadmin'
p1003
F0.00012914890869172155
sS'como'
p1004
F6.4574454345860775e-05
sS'150'
p1005
F0.0002582978173834431
sS'color'
p1006
F0.00077489345215032935
sS'jsonparser'
p1007
F0.00038744672607516468
sS'pop'
p1008
F6.4574454345860775e-05
sS'60'
p1009
F0.00012914890869172155
sS'fetch_assoc'
p1010
F0.00012914890869172155
sS'learning'
p1011
F0.00012914890869172155
sS'polo'
p1012
F0.00064574454345860772
sS'caret'
p1013
F0.00038744672607516468
sS'stranger_system'
p1014
F6.4574454345860775e-05
sS'capable'
p1015
F6.4574454345860775e-05
sS'hdr_testosterone'
p1016
F0.00038744672607516468
sS'mark'
p1017
F6.4574454345860775e-05
sS'breath'
p1018
F0.00012914890869172155
sS'log_s'
p1019
F0.00064574454345860772
sS'helicopter'
p1020
F6.4574454345860775e-05
sS'jerky'
p1021
F6.4574454345860775e-05
sS'500'
p1022
F0.00012914890869172155
sS'enable'
p1023
F0.0002582978173834431
sS'food_nutrition'
p1024
F0.0010331912695337724
sS'grayscale'
p1025
F0.00012914890869172155
sS'photos'
p1026
F0.00012914890869172155
sS'bmp'
p1027
F0.00012914890869172155
sS'external'
p1028
F0.00019372336303758234
sS'nsurlrequest'
p1029
F0.00019372336303758234
sS'ruby'
p1030
F6.4574454345860775e-05
sS'spirit'
p1031
F6.4574454345860775e-05
sS'those'
p1032
F0.00083946790649619006
sS'philosophically'
p1033
F6.4574454345860775e-05
sS'case'
p1034
F0.00045202118042102544
sS'these'
p1035
F0.00058117008911274701
sS'conception'
p1036
F6.4574454345860775e-05
sS'compile'
p1037
F0.00012914890869172155
sS'admin'
p1038
F0.00012914890869172155
sS'situation'
p1039
F6.4574454345860775e-05
sS'margin'
p1040
F0.0002582978173834431
sS'binaural'
p1041
F6.4574454345860775e-05
sS'ctrl'
p1042
F0.00064574454345860772
sS'kasuj'
p1043
F0.00012914890869172155
sS'telephony'
p1044
F0.00064574454345860772
sS'tinyurl'
p1045
F0.0002582978173834431
sS'good'
p1046
F0.00038744672607516468
sS'somebody'
p1047
F6.4574454345860775e-05
sS'ascii'
p1048
F0.0002582978173834431
sS'f2a68hm'
p1049
F6.4574454345860775e-05
sS'binary'
p1050
F0.00019372336303758234
sS'different'
p1051
F0.00045202118042102544
sS'develop'
p1052
F6.4574454345860775e-05
sS'spreadsheetapp'
p1053
F0.00012914890869172155
sS'media'
p1054
F0.0002582978173834431
sS'same'
p1055
F0.0005165956347668862
sS'html'
p1056
F0.0012269146325713548
sS'inquiry'
p1057
F6.4574454345860775e-05
sS"'returntime'"
p1058
F6.4574454345860775e-05
sS'to_email_admin'
p1059
F0.00012914890869172155
sS'streams'
p1060
F0.00012914890869172155
sS'document'
p1061
F0.00064574454345860772
sS'illegalstateexception'
p1062
F0.0010331912695337724
sS'status'
p1063
F0.00012914890869172155
sS'downloads'
p1064
F0.00012914890869172155
sS'driver'
p1065
F6.4574454345860775e-05
sS'running'
p1066
F0.00038744672607516468
sS'break'
p1067
F0.00038744672607516468
sS'customized'
p1068
F0.00012914890869172155
sS'without'
p1069
F0.00019372336303758234
sS'solve'
p1070
F0.0002582978173834431
sS'comes'
p1071
F0.00012914890869172155
sS'inability'
p1072
F0.00012914890869172155
sS'10_10_2'
p1073
F0.00012914890869172155
sS'model'
p1074
F0.00032287227172930386
sS'summer'
p1075
F6.4574454345860775e-05
sS'style1'
p1076
F6.4574454345860775e-05
sS'being'
p1077
F0.00083946790649619006
sS'rest'
p1078
F0.00032287227172930386
sS'_post'
p1079
F0.00058117008911274701
sS'ch'
p1080
F0.00064574454345860772
sS'verdad'
p1081
F6.4574454345860775e-05
sS'jsondata'
p1082
F0.00096861681518791169
sS'msghtml'
p1083
F6.4574454345860775e-05
sS'call_recorder'
p1084
F0.00077489345215032935
sS'death'
p1085
F6.4574454345860775e-05
sS'generator'
p1086
F6.4574454345860775e-05
sS'thinking'
p1087
F6.4574454345860775e-05
sS'seems'
p1088
F0.00032287227172930386
sS'desktop'
p1089
F0.0002582978173834431
sS'savednumber'
p1090
F0.00077489345215032935
sS'samples'
p1091
F0.00012914890869172155
sS'nav'
p1092
F0.00038744672607516468
sS'careers'
p1093
F6.4574454345860775e-05
sS'moz'
p1094
F6.4574454345860775e-05
sS'hover'
p1095
F0.00012914890869172155
sS'around'
p1096
F0.00019372336303758234
sS'read'
p1097
F0.00058117008911274701
sS'ttype_relay'
p1098
F6.4574454345860775e-05
sS'becuse'
p1099
F6.4574454345860775e-05
sS'amd'
p1100
F0.00012914890869172155
sS'admitting'
p1101
F0.00012914890869172155
sS'pos'
p1102
F0.00012914890869172155
sS'dark'
p1103
F0.00012914890869172155
sS'detectwrinkle'
p1104
F0.00038744672607516468
sS'using'
p1105
F0.0019372336303758234
sS'moe'
p1106
F6.4574454345860775e-05
sS'x4'
p1107
F6.4574454345860775e-05
sS'intel'
p1108
F0.00012914890869172155
sS'server'
p1109
F6.4574454345860775e-05
sS't'
F0.0005165956347668862
sS'always'
p1110
F0.00012914890869172155
sS'output'
p1111
F0.0002582978173834431
sS'node'
p1112
F0.00012914890869172155
sS'runtimeexception'
p1113
F0.0002582978173834431
sS'hotkeys'
p1114
F0.00012914890869172155
sS'images'
p1115
F0.0002582978173834431
sS'outs'
p1116
F6.4574454345860775e-05
sS'maincontent'
p1117
F6.4574454345860775e-05
sS'conservative'
p1118
F6.4574454345860775e-05
sS'exit'
p1119
F6.4574454345860775e-05
sS'provides'
p1120
F6.4574454345860775e-05
sS'914'
p1121
F0.0002582978173834431
sS'recorder'
p1122
F0.0023246803564509881
sS'911'
p1123
F0.0012914890869172154
sS'910'
p1124
F0.00077489345215032935
sS'913'
p1125
F0.00012914890869172155
sS'912'
p1126
F0.0020663825390675448
sS'accessing'
p1127
F6.4574454345860775e-05
sS'business'
p1128
F6.4574454345860775e-05
sS'internship'
p1129
F6.4574454345860775e-05
sS'equivalent'
p1130
F0.00019372336303758234
sS'broken'
p1131
F0.0002582978173834431
sS'regexr'
p1132
F0.00064574454345860772
sS'throw'
p1133
F6.4574454345860775e-05
sS'jpeg_write_scanlines'
p1134
F6.4574454345860775e-05
sS'src'
p1135
F0.00071031899780446854
sS'ol'
p1136
F0.00077489345215032935
sS'grabar'
p1137
F0.00012914890869172155
sS'origins'
p1138
F0.00012914890869172155
sS'package'
p1139
F0.00012914890869172155
sS'navegadores'
p1140
F6.4574454345860775e-05
sS'of'
p1141
F0.0086529768823453441
sS'industry'
p1142
F6.4574454345860775e-05
sS'astable'
p1143
F6.4574454345860775e-05
sS'classifier'
p1144
F0.00012914890869172155
sS'greatly'
p1145
F0.00012914890869172155
sS'infolistener'
p1146
F0.0002582978173834431
sS'lctrl'
p1147
F0.0010331912695337724
sS'discusses'
p1148
F6.4574454345860775e-05
sS'os'
p1149
F0.0012269146325713548
sS'processor'
p1150
F6.4574454345860775e-05
sS'road'
p1151
F0.00012914890869172155
sS'lands'
p1152
F6.4574454345860775e-05
sS'burning'
p1153
F6.4574454345860775e-05
sS'interfacing'
p1154
F6.4574454345860775e-05
sS'image'
p1155
F0.00045202118042102544
sS'involvement'
p1156
F6.4574454345860775e-05
sS'your'
p1157
F0.0013560635412630763
sS'mental'
p1158
F6.4574454345860775e-05
sS'nsinteger'
p1159
F0.00019372336303758234
sS'nikeid'
p1160
F0.00012914890869172155
sS'fast'
p1161
F0.00012914890869172155
sS'log'
p1162
F0.0029704248999095958
sS'prepare'
p1163
F0.0002582978173834431
sS'area'
p1164
F0.0005165956347668862
sS'biaoche'
p1165
F6.4574454345860775e-05
sS'removing'
p1166
F0.00064574454345860772
sS'bitrates'
p1167
F0.00012914890869172155
sS'there'
p1168
F0.0013560635412630763
sS'start'
p1169
F0.0023246803564509881
sS'low'
p1170
F0.00038744672607516468
sS'lot'
p1171
F0.00032287227172930386
sS'logico'
p1172
F6.4574454345860775e-05
sS'lang'
p1173
F0.00083946790649619006
sS'complete'
p1174
F0.0002582978173834431
sS'server_aspnet'
p1175
F0.00012914890869172155
sS'pitcher'
p1176
F6.4574454345860775e-05
sS'windowsapptutorials'
p1177
F6.4574454345860775e-05
sS'image_buf'
p1178
F0.00038744672607516468
sS'trying'
p1179
F0.00096861681518791169
sS'with'
p1180
F0.0034224460803306211
sS'viewport'
p1181
F6.4574454345860775e-05
sS'faster'
p1182
F0.00012914890869172155
sS"they're"
p1183
F6.4574454345860775e-05
sS'embedded'
p1184
F0.00012914890869172155
sS'default'
p1185
F0.00012914890869172155
sS'categorial'
p1186
F6.4574454345860775e-05
sS'expect'
p1187
F6.4574454345860775e-05
sS'detailed'
p1188
F6.4574454345860775e-05
sS'ac'
p1189
F6.4574454345860775e-05
sS'1209'
p1190
F0.009040423608420509
sS'videos'
p1191
F0.00019372336303758234
sS'onerror'
p1192
F0.00012914890869172155
sS'certain'
p1193
F0.00045202118042102544
sS'am'
p1194
F0.002001808084721684
sS'sales'
p1195
F0.00012914890869172155
sS'deep'
p1196
F6.4574454345860775e-05
sS'general'
p1197
F0.0002582978173834431
sS'cbr'
p1198
F6.4574454345860775e-05
sS'as'
p1199
F0.0029704248999095958
sS'at'
p1200
F0.0045847862585561153
sS'sendsynchronousrequest'
p1201
F0.00019372336303758234
sS'watched'
p1202
F0.00012914890869172155
sS'again'
p1203
F0.00012914890869172155
sS'callstarttime'
p1204
F0.00090404236084205088
sS'ideally'
p1205
F0.00019372336303758234
sS'erwaysoftware'
p1206
F6.4574454345860775e-05
sS'personnel'
p1207
F6.4574454345860775e-05
sS'adaptivethreshold'
p1208
F0.00012914890869172155
sS"r'http"
p1209
F0.00012914890869172155
sS'storage'
p1210
F0.00012914890869172155
sS'socrates'
p1211
F6.4574454345860775e-05
sS'aromatic'
p1212
F6.4574454345860775e-05
sS'iian'
p1213
F0.00012914890869172155
sS'5'
F0.00096861681518791169
sS'you'
p1214
F0.0037453183520599251
sS'poor'
p1215
F6.4574454345860775e-05
sS'possable'
p1216
F6.4574454345860775e-05
sS'ilan'
p1217
F0.00012914890869172155
sS'separate'
p1218
F0.00019372336303758234
sS'area_code'
p1219
F0.00012914890869172155
sS'symbol'
p1220
F6.4574454345860775e-05
sS'important'
p1221
F0.00038744672607516468
sS'peak'
p1222
F0.00012914890869172155
sS'adaptive_thresh_gaussian_c'
p1223
F0.00012914890869172155
sS'nshttpurlresponse'
p1224
F0.00019372336303758234
sS'alcohol'
p1225
F0.00012914890869172155
sS'building'
p1226
F0.00032287227172930386
sS"'give"
p1227
F6.4574454345860775e-05
sS'calls'
p1228
F6.4574454345860775e-05
sS'curve'
p1229
F6.4574454345860775e-05
sS'finished'
p1230
F6.4574454345860775e-05
sS'websites'
p1231
F6.4574454345860775e-05
sS'scroll'
p1232
F0.00012914890869172155
sS'adam'
p1233
F6.4574454345860775e-05
sS'starting'
p1234
F0.0002582978173834431
sS'all'
p1235
F0.0012269146325713548
sS'consider'
p1236
F0.0002582978173834431
sS'ali'
p1237
F0.00012914890869172155
sS'caused'
p1238
F6.4574454345860775e-05
sS'lack'
p1239
F6.4574454345860775e-05
sS'strtotime'
p1240
F0.00012914890869172155
sS'executing'
p1241
F0.00012914890869172155
sS'scalar'
p1242
F0.0002582978173834431
sS'looper'
p1243
F0.0005165956347668862
sS'incomig'
p1244
F0.00012914890869172155
sS'follow'
p1245
F6.4574454345860775e-05
sS'alt'
p1246
F0.0002582978173834431
sS'gz2'
p1247
F6.4574454345860775e-05
sS'ptr'
p1248
F0.0002582978173834431
sS'causes'
p1249
F6.4574454345860775e-05
sS'careful'
p1250
F6.4574454345860775e-05
sS'predawn'
p1251
F6.4574454345860775e-05
sS'tv'
p1252
F0.00012914890869172155
sS'tr'
p1253
F0.00071031899780446854
sS'to'
p1254
F0.016208188040811054
sS'init'
p1255
F0.00019372336303758234
sS'program'
p1256
F0.00019372336303758234
sS'lastprocessms'
p1257
F0.00012914890869172155
sS'td'
p1258
F0.00064574454345860772
sS'destinationimage'
p1259
F0.00064574454345860772
sS'sound'
p1260
F6.4574454345860775e-05
sS'woman'
p1261
F6.4574454345860775e-05
sS'distorting'
p1262
F6.4574454345860775e-05
sS'sitting'
p1263
F0.0002582978173834431
sS'very'
p1264
F0.00071031899780446854
sS'getaddress'
p1265
F6.4574454345860775e-05
sS'amplifies'
p1266
F6.4574454345860775e-05
sS'util'
p1267
F0.0002582978173834431
sS'1px'
p1268
F0.00019372336303758234
sS'difference'
p1269
F6.4574454345860775e-05
sS'exe'
p1270
F0.00012914890869172155
sS'coverageapi'
p1271
F0.00019372336303758234
sS'cable'
p1272
F6.4574454345860775e-05
sS'list'
p1273
F0.0005165956347668862
sS'resistor'
p1274
F6.4574454345860775e-05
sS'large'
p1275
F0.0002582978173834431
sS'circuit'
p1276
F0.00012914890869172155
sS'equalizehist'
p1277
F0.00012914890869172155
sS'stderr'
p1278
F6.4574454345860775e-05
sS'small'
p1279
F0.00019372336303758234
sS'lisa'
p1280
F0.00012914890869172155
sS'sync'
p1281
F0.00012914890869172155
sS'getvalue'
p1282
F6.4574454345860775e-05
sS'past'
p1283
F6.4574454345860775e-05
sS'rate'
p1284
F6.4574454345860775e-05
sS'0cpqnaqpwvs'
p1285
F0.00012914890869172155
sS'design'
p1286
F0.00012914890869172155
sS'plugins'
p1287
F6.4574454345860775e-05
sS'what'
p1288
F0.0010977657238796332
sS'darkness'
p1289
F0.0002582978173834431
sS'witnessed'
p1290
F0.00012914890869172155
sS'sun'
p1291
F0.00012914890869172155
sS'sum'
p1292
F0.00012914890869172155
sS'version'
p1293
F6.4574454345860775e-05
sS'1101110111010101'
p1294
F0.00012914890869172155
sS'racing'
p1295
F6.4574454345860775e-05
sS'public'
p1296
F0.0025184037194885705
sS'contrast'
p1297
F0.001162340178225494
sS'outgoing'
p1298
F0.0005165956347668862
sS'full'
p1299
F6.4574454345860775e-05
sS'ranged'
p1300
F0.00019372336303758234
sS'answers'
p1301
F0.00019372336303758234
sS'jsamprow'
p1302
F6.4574454345860775e-05
sS'hours'
p1303
F0.00012914890869172155
sS'favourable'
p1304
F6.4574454345860775e-05
sS'threads'
p1305
F0.00012914890869172155
sS'strong'
p1306
F0.0023246803564509881
sS'search'
p1307
F0.00019372336303758234
sS'sender'
p1308
F0.00032287227172930386
sS'frustrating'
p1309
F0.00012914890869172155
sS'experience'
p1310
F0.00012914890869172155
sS'amount'
p1311
F6.4574454345860775e-05
sS'social'
p1312
F0.0002582978173834431
sS'action'
p1313
F0.0002582978173834431
sS'mentions'
p1314
F6.4574454345860775e-05
sS'urldata'
p1315
F0.00038744672607516468
sS'options'
p1316
F0.00012914890869172155
sS'applewebkit'
p1317
F0.00012914890869172155
sS'via'
p1318
F0.00012914890869172155
sS'followed'
p1319
F6.4574454345860775e-05
sS'debugger'
p1320
F6.4574454345860775e-05
sS'adidas'
p1321
F0.00019372336303758234
sS'suddenly'
p1322
F6.4574454345860775e-05
sS'href'
p1323
F0.0064574454345860781
sS'select'
p1324
F0.0010977657238796332
sS'takes'
p1325
F0.00012914890869172155
sS'answered'
p1326
F0.00012914890869172155
sS'stdout'
p1327
F6.4574454345860775e-05
sS'two'
p1328
F0.00058117008911274701
sS'6'
F0.00038744672607516468
sS'taken'
p1329
F0.0002582978173834431
sS'msgbox'
p1330
F0.00012914890869172155
sS'more'
p1331
F0.00090404236084205088
sS'coating'
p1332
F0.00012914890869172155
sS'company'
p1333
F0.0002582978173834431
sS'wrinkle_contour_fill'
p1334
F0.00012914890869172155
sS'vm'
p1335
F0.00019372336303758234
sS'tested'
p1336
F0.00012914890869172155
sS'flag'
p1337
F6.4574454345860775e-05
sS'particular'
p1338
F0.00038744672607516468
sS'webkit'
p1339
F6.4574454345860775e-05
sS'none'
p1340
F0.00032287227172930386
sS'noreply'
p1341
F6.4574454345860775e-05
sS'cluster'
p1342
F6.4574454345860775e-05
sS'installing'
p1343
F6.4574454345860775e-05
sS'dev'
p1344
F0.00012914890869172155
sS'xingji'
p1345
F6.4574454345860775e-05
sS'next_scanline'
p1346
F0.00012914890869172155
sS'errorlistener'
p1347
F0.0002582978173834431
sS'v'
F0.0002582978173834431
sS'stated'
p1348
F0.00012914890869172155
sS'sapho'
p1349
F0.00032287227172930386
sS'share'
p1350
F0.00012914890869172155
sS'accept'
p1351
F0.00019372336303758234
sS'tabular'
p1352
F6.4574454345860775e-05
sS'pushed'
p1353
F6.4574454345860775e-05
sS'magento'
p1354
F0.00019372336303758234
sS'numbers'
p1355
F6.4574454345860775e-05
sS'sense'
p1356
F6.4574454345860775e-05
sS'interpreted'
p1357
F6.4574454345860775e-05
sS'samplerate'
p1358
F0.00012914890869172155
sS'information'
p1359
F0.00012914890869172155
sS'breaking'
p1360
F0.0002582978173834431
sS'ledger'
p1361
F6.4574454345860775e-05
sS'snippet'
p1362
F0.00064574454345860772
sS'css'
p1363
F0.00064574454345860772
sS'tried'
p1364
F0.001162340178225494
sS'616'
p1365
F0.0002582978173834431
sS'mapping'
p1366
F0.0002582978173834431
sS'questioning'
p1367
F6.4574454345860775e-05
sS'reflect'
p1368
F0.0002582978173834431
sS'furhter'
p1369
F0.00012914890869172155
sS'disable'
p1370
F0.00012914890869172155
sS'buffer'
p1371
F0.00012914890869172155
sS'horizontal'
p1372
F6.4574454345860775e-05
sS'response'
p1373
F0.0018726591760299626
sS'a'
F0.024538292651427096
sS'setvalue'
p1374
F0.00058117008911274701
sS'susan'
p1375
F6.4574454345860775e-05
sS'register'
p1376
F0.00012914890869172155
sS'telephonymanager'
p1377
F0.00077489345215032935
sS"'phone'"
p1378
F6.4574454345860775e-05
sS'recipientemail'
p1379
F0.00012914890869172155
sS'secs'
p1380
F0.00019372336303758234
sS'image_height'
p1381
F0.00012914890869172155
sS'shade'
p1382
F0.00012914890869172155
sS'call_state_offhook'
p1383
F0.00012914890869172155
sS'xmlobj'
p1384
F0.00064574454345860772
sS'playing'
p1385
F0.00012914890869172155
sS"that's"
p1386
F0.0005165956347668862
sS'rounded'
p1387
F6.4574454345860775e-05
sS'help'
p1388
F0.0012269146325713548
sS"don't"
p1389
F0.00038744672607516468
sS'stains'
p1390
F6.4574454345860775e-05
sS'developed'
p1391
F6.4574454345860775e-05
sS'soon'
p1392
F6.4574454345860775e-05
sS"y'"
p1393
F0.00012914890869172155
sS'installed'
p1394
F0.00012914890869172155
sS'disabled'
p1395
F0.00012914890869172155
sS'episode125'
p1396
F0.00038744672607516468
sS'paper'
p1397
F0.00071031899780446854
sS'through'
p1398
F6.4574454345860775e-05
sS'filters'
p1399
F6.4574454345860775e-05
sS'webservicex'
p1400
F0.00012914890869172155
sS'its'
p1401
F0.00032287227172930386
sS'roots'
p1402
F6.4574454345860775e-05
sS"'returndate'"
p1403
F6.4574454345860775e-05
sS'25'
p1404
F0.00012914890869172155
sS'rezultat'
p1405
F0.00058117008911274701
sS'20'
p1406
F0.00012914890869172155
sS'22'
p1407
F0.0002582978173834431
sS'image_ptr'
p1408
F0.00012914890869172155
sS'runat'
p1409
F6.4574454345860775e-05
sS'detected'
p1410
F0.00012914890869172155
sS'systems'
p1411
F6.4574454345860775e-05
sS'pena'
p1412
F6.4574454345860775e-05
sS'might'
p1413
F0.00045202118042102544
sS'digas'
p1414
F6.4574454345860775e-05
sS"haven't"
p1415
F6.4574454345860775e-05
sS'someone'
p1416
F0.00012914890869172155
sS'return'
p1417
F0.00071031899780446854
sS'ya'
p1418
F6.4574454345860775e-05
sS'onsuccess'
p1419
F6.4574454345860775e-05
sS'notebookreview'
p1420
F0.00012914890869172155
sS'easily'
p1421
F6.4574454345860775e-05
sS'erection'
p1422
F6.4574454345860775e-05
sS'fully'
p1423
F6.4574454345860775e-05
sS'decimal'
p1424
F0.00012914890869172155
sS'level'
p1425
F0.0002582978173834431
sS'2x'
p1426
F0.00012914890869172155
sS"template's"
p1427
F0.00019372336303758234
sS'micro'
p1428
F6.4574454345860775e-05
sS'stopped'
p1429
F0.00012914890869172155
sS'uploads'
p1430
F0.00012914890869172155
sS'radial'
p1431
F6.4574454345860775e-05
sS'found'
p1432
F0.00012914890869172155
sS'0030'
p1433
F6.4574454345860775e-05
sS'notes'
p1434
F0.00019372336303758234
sS'customization'
p1435
F6.4574454345860775e-05
sS'weight'
p1436
F0.00012914890869172155
sS'energy'
p1437
F6.4574454345860775e-05
sS'hard'
p1438
F0.0002582978173834431
sS'idea'
p1439
F0.0002582978173834431
sS'phonecallreceiver'
p1440
F0.00090404236084205088
sS'connect'
p1441
F0.0002582978173834431
sS'inflict'
p1442
F6.4574454345860775e-05
sS'infinity'
p1443
F6.4574454345860775e-05
sS'784691'
p1444
F0.00012914890869172155
sS'reduct'
p1445
F0.00012914890869172155
sS'laststate'
p1446
F0.00038744672607516468
sS'really'
p1447
F0.00045202118042102544
sS'missed'
p1448
F6.4574454345860775e-05
sS'solved'
p1449
F6.4574454345860775e-05
sS'since'
p1450
F0.00019372336303758234
sS'research'
p1451
F6.4574454345860775e-05
sS'si'
p1452
F6.4574454345860775e-05
sS'safety'
p1453
F6.4574454345860775e-05
sS'sourceimage'
p1454
F0.00077489345215032935
sS'7'
F0.00058117008911274701
sS'print'
p1455
F0.00090404236084205088
sS'issue'
p1456
F6.4574454345860775e-05
sS'asp'
p1457
F6.4574454345860775e-05
sS'dune'
p1458
F0.0002582978173834431
sS'asf'
p1459
F6.4574454345860775e-05
sS'put'
p1460
F0.00032287227172930386
sS'generate'
p1461
F6.4574454345860775e-05
sS'onopen'
p1462
F6.4574454345860775e-05
sS'thread'
p1463
F0.00019372336303758234
sS'w'
F0.0037453183520599251
sS'sacrifice'
p1464
F0.0005165956347668862
sS'sublimation_printer'
p1465
F0.0002582978173834431
sS'onoutgoingcallended'
p1466
F0.00038744672607516468
sS'dont'
p1467
F6.4574454345860775e-05
sS'encoding'
p1468
F0.00032287227172930386
sS'feel'
p1469
F0.00045202118042102544
sS'number'
p1470
F0.0017435102673382409
sS'done'
p1471
F0.0002582978173834431
sS'firsttext'
p1472
F0.00019372336303758234
sS'txtekran'
p1473
F0.00077489345215032935
sS'ecommerce'
p1474
F0.00012914890869172155
sS'guess'
p1475
F6.4574454345860775e-05
sS'script'
p1476
F0.0010977657238796332
sS'least'
p1477
F6.4574454345860775e-05
sS'superpoweredadvancedaudioplayer'
p1478
F0.0005165956347668862
sS'statement'
p1479
F6.4574454345860775e-05
sS'molecular'
p1480
F6.4574454345860775e-05
sS'store'
p1481
F6.4574454345860775e-05
sS'listed'
p1482
F6.4574454345860775e-05
sS'muscles'
p1483
F6.4574454345860775e-05
sS'option'
p1484
F0.0002582978173834431
sS'relationship'
p1485
F6.4574454345860775e-05
sS'behind'
p1486
F6.4574454345860775e-05
sS'nattraversal'
p1487
F0.00012914890869172155
sS'part'
p1488
F0.00012914890869172155
sS'bunter'
p1489
F0.00012914890869172155
sS'off'
p1490
F0.0002582978173834431
sS'hth'
p1491
F0.00012914890869172155
sS'getfilename'
p1492
F0.00012914890869172155
sS'kind'
p1493
F6.4574454345860775e-05
sS'b'
F0.0010331912695337724
sS'phpmailer'
p1494
F6.4574454345860775e-05
sS'aac'
p1495
F0.00012914890869172155
sS'double'
p1496
F0.00012914890869172155
sS'bookslab'
p1497
F0.00019372336303758234
sS'recording'
p1498
F0.0041327650781350896
sS'headers'
p1499
F0.00064574454345860772
sS'interactive'
p1500
F0.00012914890869172155
sS'class_superpowered_advanced_audio_player'
p1501
F0.00012914890869172155
sS'macau'
p1502
F6.4574454345860775e-05
sS'ages'
p1503
F0.00019372336303758234
sS'creases'
p1504
F6.4574454345860775e-05
sS'nsurl'
p1505
F0.00038744672607516468
sS'sontag'
p1506
F6.4574454345860775e-05
sS'remapping'
p1507
F0.00012914890869172155
sS'null'
p1508
F0.00064574454345860772
sS'built'
p1509
F6.4574454345860775e-05
sS'zero'
p1510
F6.4574454345860775e-05
sS'tfschange'
p1511
F0.00012914890869172155
sS'self'
p1512
F0.00038744672607516468
sS'objmail'
p1513
F0.00058117008911274701
sS'also'
p1514
F0.00083946790649619006
sS'internal'
p1515
F0.00064574454345860772
sS'build'
p1516
F0.00045202118042102544
sS'finding'
p1517
F0.00032287227172930386
sS'5luzl1'
p1518
F0.00012914890869172155
sS'subject_admin'
p1519
F0.00012914890869172155
sS'play'
p1520
F0.0002582978173834431
sS'towards'
p1521
F6.4574454345860775e-05
sS'exec'
p1522
F0.00019372336303758234
sS'quote'
p1523
F6.4574454345860775e-05
sS'sets'
p1524
F6.4574454345860775e-05
sS'most'
p1525
F6.4574454345860775e-05
sS'virus'
p1526
F6.4574454345860775e-05
sS'plan'
p1527
F6.4574454345860775e-05
sS"'ce'"
p1528
F6.4574454345860775e-05
sS'nothing'
p1529
F0.00096861681518791169
sS'isincoming'
p1530
F0.0005165956347668862
sS'muscle'
p1531
F0.00019372336303758234
sS'windows'
p1532
F0.0005165956347668862
sS'sometimes'
p1533
F0.00012914890869172155
sS'microsoft'
p1534
F0.00038744672607516468
sS'joining'
p1535
F0.00012914890869172155
sS'paul'
p1536
F6.4574454345860775e-05
sS'ugh'
p1537
F0.00012914890869172155
sS'commas'
p1538
F0.00012914890869172155
sS'nombrecampo'
p1539
F0.0002582978173834431
sS'session'
p1540
F0.00064574454345860772
sS'fine'
p1541
F0.00045202118042102544
sS'find'
p1542
F0.00077489345215032935
sS'dilation'
p1543
F0.0002582978173834431
sS'cell'
p1544
F0.00045202118042102544
sS'believe'
p1545
F6.4574454345860775e-05
sS'failed'
p1546
F0.00032287227172930386
sS'pretty'
p1547
F0.00019372336303758234
sS'override'
p1548
F0.001162340178225494
sS'8'
F0.00071031899780446854
sS'circle'
p1549
F0.00012914890869172155
sS'blynk'
p1550
F0.00012914890869172155
sS'jquery'
p1551
F6.4574454345860775e-05
sS'his'
p1552
F0.00064574454345860772
sS'hit'
p1553
F0.00012914890869172155
sS'skyshuttlehk'
p1554
F0.00012914890869172155
sS'invoke'
p1555
F0.0002582978173834431
sS'sql2'
p1556
F0.0002582978173834431
sS'express'
p1557
F0.00019372336303758234
sS'mediarecorder'
p1558
F0.0019372336303758234
sS'combinations'
p1559
F0.00012914890869172155
sS'referencing'
p1560
F0.00012914890869172155
sS'him'
p1561
F6.4574454345860775e-05
sS'fluff'
p1562
F6.4574454345860775e-05
sS'resolve'
p1563
F6.4574454345860775e-05
sS'bytes'
p1564
F0.00019372336303758234
sS'remove'
p1565
F0.00071031899780446854
sS'common'
p1566
F6.4574454345860775e-05
sS'x'
F0.00071031899780446854
sS'set'
p1567
F0.00045202118042102544
sS'creator'
p1568
F6.4574454345860775e-05
sS'heritageactionscorecard'
p1569
F0.00012914890869172155
sS'see'
p1570
F0.00038744672607516468
sS'are'
p1571
F0.0015497869043006587
sS'arg'
p1572
F0.00012914890869172155
sS'close'
p1573
F6.4574454345860775e-05
sS'dispatchmessage'
p1574
F0.0002582978173834431
sS'contour'
p1575
F0.00012914890869172155
sS'speed'
p1576
F6.4574454345860775e-05
sS'currently'
p1577
F0.00012914890869172155
sS'please'
p1578
F0.00077489345215032935
sS'fans'
p1579
F0.00012914890869172155
sS'burned'
p1580
F6.4574454345860775e-05
sS'conditions'
p1581
F6.4574454345860775e-05
sS'knowing'
p1582
F0.00012914890869172155
sS'recently'
p1583
F0.00012914890869172155
sS'creating'
p1584
F0.00032287227172930386
sS'missing'
p1585
F0.00019372336303758234
sS'dfasf'
p1586
F6.4574454345860775e-05
sS'brewing'
p1587
F0.00012914890869172155
sS'darkred'
p1588
F6.4574454345860775e-05
sS'hotkey'
p1589
F0.0005165956347668862
sS'both'
p1590
F0.00038744672607516468
sS'c'
F0.0016143613586465195
sS'last'
p1591
F0.0002582978173834431
sS'mentats'
p1592
F0.00012914890869172155
sS'downloaded'
p1593
F6.4574454345860775e-05
sS'arraylist'
p1594
F0.0002582978173834431
sS'areacode'
p1595
F0.00038744672607516468
sS'roman'
p1596
F0.00019372336303758234
sS'operat'
p1597
F0.00038744672607516468
sS'context'
p1598
F0.0030995738086013174
sS'forhttpheaderfield'
p1599
F0.00058117008911274701
sS'bots'
p1600
F6.4574454345860775e-05
sS'risky'
p1601
F6.4574454345860775e-05
sS'rollers'
p1602
F6.4574454345860775e-05
sS'load'
p1603
F0.00038744672607516468
sS'geolocation'
p1604
F6.4574454345860775e-05
sS'point'
p1605
F0.00012914890869172155
sS'simple'
p1606
F0.0002582978173834431
sS'whatever'
p1607
F6.4574454345860775e-05
sS'header'
p1608
F0.00019372336303758234
sS'globals'
p1609
F0.00012914890869172155
sS'simply'
p1610
F6.4574454345860775e-05
sS'stoped'
p1611
F0.0002582978173834431
sS'platinum'
p1612
F6.4574454345860775e-05
sS'java'
p1613
F0.0033578716259847602
sS'postdata'
p1614
F0.00077489345215032935
sS'output_scanline'
p1615
F6.4574454345860775e-05
sS'create'
p1616
F0.0002582978173834431
sS'due'
p1617
F6.4574454345860775e-05
sS'strategy'
p1618
F6.4574454345860775e-05
sS'pc'
p1619
F0.00012914890869172155
sS'toolbar'
p1620
F6.4574454345860775e-05
sS'nserror'
p1621
F0.00019372336303758234
sS'sina'
p1622
F6.4574454345860775e-05
sS'pl'
p1623
F6.4574454345860775e-05
sS'4'
F0.001162340178225494
sS"agent'"
p1624
F0.00012914890869172155
sS'generating'
p1625
F6.4574454345860775e-05
sS'modern'
p1626
F0.00012914890869172155
sS'partly'
p1627
F0.0002582978173834431
sS"what's"
p1628
F6.4574454345860775e-05
sS'convert'
p1629
F0.00019372336303758234
sS'else'
p1630
F0.0012914890869172154
sS'sdks'
p1631
F0.00012914890869172155
sS'classifications'
p1632
F6.4574454345860775e-05
sS'look'
p1633
F6.4574454345860775e-05
sS'juice'
p1634
F6.4574454345860775e-05
sS'solid'
p1635
F0.00019372336303758234
sS'reliable'
p1636
F6.4574454345860775e-05
sS'zad4'
p1637
F6.4574454345860775e-05
sS'zad3'
p1638
F6.4574454345860775e-05
sS'zad2'
p1639
F6.4574454345860775e-05
sS'zad1'
p1640
F6.4574454345860775e-05
sS'while'
p1641
F0.00038744672607516468
sS'error'
p1642
F0.0021309569934134056
sS'fun'
p1643
F6.4574454345860775e-05
sS'guide'
p1644
F6.4574454345860775e-05
sS'loop'
p1645
F0.00038744672607516468
sS'hoping'
p1646
F6.4574454345860775e-05
sS'connect_error'
p1647
F0.00012914890869172155
sS'jpg'
p1648
F0.001162340178225494
sS'decoration'
p1649
F6.4574454345860775e-05
sS'skype'
p1650
F6.4574454345860775e-05
sS'ready'
p1651
F6.4574454345860775e-05
sS'incomingnumber'
p1652
F0.0005165956347668862
sS'rid'
p1653
F6.4574454345860775e-05
sS'aged'
p1654
F6.4574454345860775e-05
sS'fibers'
p1655
F0.00012914890869172155
sS'x64'
p1656
F0.00012914890869172155
sS'wwww'
p1657
F6.4574454345860775e-05
sS'onclick'
p1658
F0.0010331912695337724
sS'9'
F0.00019372336303758234
sS'796px'
p1659
F6.4574454345860775e-05
sS'used'
p1660
F0.00019372336303758234
sS'fatty'
p1661
F6.4574454345860775e-05
sS'set_time_limit'
p1662
F0.00012914890869172155
sS'keys'
p1663
F0.0002582978173834431
sS'3gp'
p1664
F0.00012914890869172155
sS'alert'
p1665
F6.4574454345860775e-05
sS'printstacktrace'
p1666
F0.00090404236084205088
sS'000'
p1667
F0.00012914890869172155
sS'moving'
p1668
F0.00012914890869172155
sS'user'
p1669
F0.00019372336303758234
sS'stack'
p1670
F0.00038744672607516468
sS'early'
p1671
F0.00012914890869172155
sS'lower'
p1672
F6.4574454345860775e-05
sS'task'
p1673
F0.00012914890869172155
sS'database'
p1674
F0.0002582978173834431
sS'threshclone'
p1675
F0.0002582978173834431
sS'anybody'
p1676
F0.00012914890869172155
sS'obviously'
p1677
F6.4574454345860775e-05
sS'person'
p1678
F6.4574454345860775e-05
sS'edge'
p1679
F6.4574454345860775e-05
sS'flags'
p1680
F6.4574454345860775e-05
sS'y'
F6.4574454345860775e-05
sS'docker'
p1681
F0.00012914890869172155
sS'rheumy'
p1682
F6.4574454345860775e-05
sS'objectforkey'
p1683
F0.00038744672607516468
sS'db'
p1684
F0.00090404236084205088
sS'questions'
p1685
F0.0002582978173834431
sS'amp'
p1686
F0.00058117008911274701
sS'talk'
p1687
F6.4574454345860775e-05
sS'alternative'
p1688
F0.00012914890869172155
sS'strart'
p1689
F6.4574454345860775e-05
sS'tables'
p1690
F6.4574454345860775e-05
sS'extracted'
p1691
F6.4574454345860775e-05
sS'scales'
p1692
F6.4574454345860775e-05
sS'calibre'
p1693
F6.4574454345860775e-05
sS'source'
p1694
F0.00019372336303758234
sS'location'
p1695
F0.00012914890869172155
sS'input'
p1696
F0.0015497869043006587
sS'customers'
p1697
F0.00012914890869172155
sS'loss'
p1698
F6.4574454345860775e-05
sS'big'
p1699
F6.4574454345860775e-05
sS'couple'
p1700
F0.0002582978173834431
sS'recorderstarted'
p1701
F0.00012914890869172155
sS'hitters'
p1702
F6.4574454345860775e-05
sS'punchlinern'
p1703
F6.4574454345860775e-05
sS'necessary'
p1704
F6.4574454345860775e-05
sS'bit'
p1705
F6.4574454345860775e-05
sS'pertinent'
p1706
F6.4574454345860775e-05
sS'd'
F0.0033578716259847602
sS'signal'
p1707
F6.4574454345860775e-05
sS'oninfo'
p1708
F0.00012914890869172155
sS'ignore'
p1709
F6.4574454345860775e-05
sS'boolean'
p1710
F0.00090404236084205088
sS'unstable'
p1711
F0.00012914890869172155
sS'popular'
p1712
F6.4574454345860775e-05
sS'google'
p1713
F0.0002582978173834431
sS'methods'
p1714
F0.00012914890869172155
sS'fucking'
p1715
F6.4574454345860775e-05
sS'30s'
p1716
F0.00012914890869172155
sS'some'
p1717
F0.0010977657238796332
sS'back'
p1718
F0.00038744672607516468
sS'lips'
p1719
F0.0002582978173834431
sS'scale'
p1720
F6.4574454345860775e-05
sS'decision'
p1721
F6.4574454345860775e-05
sS'transactions'
p1722
F6.4574454345860775e-05
sS'pros'
p1723
F6.4574454345860775e-05
sS'integration'
p1724
F0.00012914890869172155
sS'per'
p1725
F6.4574454345860775e-05
sS'connecting'
p1726
F0.00012914890869172155
sS'call_state_idle'
p1727
F0.0002582978173834431
sS'minimal'
p1728
F0.00012914890869172155
sS'either'
p1729
F0.00012914890869172155
sS'phone_number'
p1730
F0.00012914890869172155
sS'be'
p1731
F0.0023246803564509881
sS'run'
p1732
F0.00045202118042102544
sS'300'
p1733
F0.00019372336303758234
sS'303'
p1734
F0.00012914890869172155
sS'bt'
p1735
F0.00019372336303758234
sS'step'
p1736
F6.4574454345860775e-05
sS'br'
p1737
F0.00012914890869172155
sS'bs'
p1738
F0.00012914890869172155
sS'by'
p1739
F0.0027767015368720133
sS'shine'
p1740
F6.4574454345860775e-05
sS'anything'
p1741
F0.0002582978173834431
sS'pro2'
p1742
F0.00032287227172930386
sS'wrinkles'
p1743
F0.00032287227172930386
sS'extensions'
p1744
F6.4574454345860775e-05
sS'block'
p1745
F0.00038744672607516468
sS'initwithformat'
p1746
F0.00019372336303758234
sS'allowlossyconversion'
p1747
F0.00019372336303758234
sS'into'
p1748
F0.00058117008911274701
sS'appropriate'
p1749
F6.4574454345860775e-05
sS'rownaclick'
p1750
F0.00012914890869172155
sS'alison'
p1751
F6.4574454345860775e-05
sS'rows'
p1752
F0.0002582978173834431
sS'span'
p1753
F0.0010331912695337724
sS'spam'
p1754
F0.0002582978173834431
sS'question'
p1755
F0.00077489345215032935
sS'live'
p1756
F6.4574454345860775e-05
sS'long'
p1757
F6.4574454345860775e-05
sS'custom'
p1758
F6.4574454345860775e-05
sS'heritage'
p1759
F6.4574454345860775e-05
sS'xps'
p1760
F0.00012914890869172155
sS'sections'
p1761
F0.00012914890869172155
sS'wrinkle_threshold'
p1762
F0.00012914890869172155
sS'files'
p1763
F0.00012914890869172155
sS'himself'
p1764
F0.00019372336303758234
sS'wondering'
p1765
F6.4574454345860775e-05
sS'audiosource'
p1766
F0.00012914890869172155
sS'is_missed'
p1767
F0.0002582978173834431
sS'properly'
p1768
F0.00012914890869172155
sS'link'
p1769
F0.00071031899780446854
sS'oninfolistener'
p1770
F0.00038744672607516468
sS'line'
p1771
F0.00064574454345860772
sS'junior'
p1772
F6.4574454345860775e-05
sS'posted'
p1773
F0.00012914890869172155
sS'info'
p1774
F0.0010331912695337724
sS'utf'
p1775
F0.00012914890869172155
sS"'src'"
p1776
F0.00012914890869172155
sS'up'
p1777
F0.0014852124499547979
sS'us'
p1778
F0.00032287227172930386
sS'ul'
p1779
F0.0018080847216841018
sS'verification'
p1780
F6.4574454345860775e-05
sS'uk'
p1781
F0.00038744672607516468
sS'similar'
p1782
F0.0002582978173834431
sS'called'
p1783
F0.00045202118042102544
sS'element1'
p1784
F0.0002582978173834431
sS'parser'
p1785
F0.00012914890869172155
sS'char'
p1786
F0.0002582978173834431
sS'implementar'
p1787
F6.4574454345860775e-05
sS'single'
p1788
F0.00045202118042102544
sS'cure'
p1789
F6.4574454345860775e-05
sS'chat'
p1790
F0.00032287227172930386
sS'gecko'
p1791
F0.00012914890869172155
sS'getrange'
p1792
F0.00012914890869172155
sS'951'
p1793
F0.00012914890869172155
sS'invalid'
p1794
F0.00012914890869172155
sS'plugged'
p1795
F6.4574454345860775e-05
sS'application'
p1796
F0.0005165956347668862
sS'cyfra'
p1797
F0.00019372336303758234
sS'explaining'
p1798
F6.4574454345860775e-05
sS'helpfull'
p1799
F0.00012914890869172155
sS'elements'
p1800
F0.0005165956347668862
sS'nsutf8stringencoding'
p1801
F0.00019372336303758234
sS'users'
p1802
F0.00012914890869172155
sS'calculating'
p1803
F0.00012914890869172155
sS'sublimation'
p1804
F0.0002582978173834431
sS'problems'
p1805
F0.00019372336303758234
sS'incomming'
p1806
F0.00012914890869172155
sS"mentat's"
p1807
F6.4574454345860775e-05
sS'wrinkle'
p1808
F0.00077489345215032935
sS'sides'
p1809
F6.4574454345860775e-05
sS'ago'
p1810
F0.00019372336303758234
sS'e'
F0.0047139351672478369
sS'practically'
p1811
F6.4574454345860775e-05
sS'age'
p1812
F0.00019372336303758234
sS'youtube'
p1813
F0.00019372336303758234
sS'pamphlets'
p1814
F6.4574454345860775e-05
sS'2000'
p1815
F0.00012914890869172155
sS"'localhost'"
p1816
F0.00012914890869172155
sS'oracle'
p1817
F6.4574454345860775e-05
sS'hdr_estrogen'
p1818
F0.00038744672607516468
sS'having'
p1819
F0.00058117008911274701
sS'once'
p1820
F0.0002582978173834431
sS'code'
p1821
F0.0077489345215032935
sS'gr'
p1822
F0.00012914890869172155
sS'conferencias'
p1823
F6.4574454345860775e-05
sS'results'
p1824
F0.00019372336303758234
sS'existing'
p1825
F6.4574454345860775e-05
sS'toggle'
p1826
F0.0014206379956089371
sS'gb'
p1827
F6.4574454345860775e-05
sS'go'
p1828
F0.00038744672607516468
sS'gn'
p1829
F6.4574454345860775e-05
sS'gl'
p1830
F0.00058117008911274701
sS'seemed'
p1831
F6.4574454345860775e-05
sS'superpowered'
p1832
F0.00012914890869172155
sS'pedalling'
p1833
F6.4574454345860775e-05
sS'send'
p1834
F0.001162340178225494
sS'suits'
p1835
F6.4574454345860775e-05
sS'contours'
p1836
F0.0015497869043006587
sS'stable'
p1837
F0.00019372336303758234
sS'include'
p1838
F0.00012914890869172155
sS'quora'
p1839
F6.4574454345860775e-05
sS'result2'
p1840
F0.00012914890869172155
sS'activitythread'
p1841
F0.0005165956347668862
sS'woocomerce'
p1842
F6.4574454345860775e-05
sS'facebook'
p1843
F0.00012914890869172155
sS'underscore'
p1844
F0.00019372336303758234
sS'stackoverflow'
p1845
F0.00012914890869172155
sS'mixing'
p1846
F6.4574454345860775e-05
sS'asmx'
p1847
F0.00012914890869172155
sS'entire'
p1848
F0.00019372336303758234
sS'ejemplos'
p1849
F6.4574454345860775e-05
sS'button'
p1850
F0.0016143613586465195
sS'integrating'
p1851
F0.00012914890869172155
sS'try'
p1852
F0.0014206379956089371
sS'compositing'
p1853
F6.4574454345860775e-05
sS'imgur'
p1854
F0.00038744672607516468
sS'smaller'
p1855
F0.00012914890869172155
sS'za'
p1856
F0.00019372336303758234
sS'modified'
p1857
F6.4574454345860775e-05
sS'alphanumeric'
p1858
F0.00019372336303758234
sS'blowing'
p1859
F6.4574454345860775e-05
sS'video'
p1860
F0.00058117008911274701
sS'uncomfortable'
p1861
F0.00012914890869172155
sS'download'
p1862
F0.0005165956347668862
sS'click'
p1863
F0.00019372336303758234
sS'index'
p1864
F0.0002582978173834431
sS'5417'
p1865
F0.0002582978173834431
sS'power'
p1866
F6.4574454345860775e-05
sS'giving'
p1867
F0.0002582978173834431
sS'screenshots'
p1868
F6.4574454345860775e-05
sS'jusuf'
p1869
F0.00038744672607516468
sS'call_state_ringing'
p1870
F0.00012914890869172155
sS'networks'
p1871
F6.4574454345860775e-05
sS'access'
p1872
F0.00032287227172930386
sS'seconds'
p1873
F0.00012914890869172155
sS'buttonclicked'
p1874
F0.0002582978173834431
sS'experiment'
p1875
F0.00012914890869172155
sS'dskjadhjkhgkjdgkjgdkasgds'
p1876
F6.4574454345860775e-05
sS'exercise'
p1877
F6.4574454345860775e-05
sS'body'
p1878
F0.00032287227172930386
sS'lea'
p1879
F6.4574454345860775e-05
sS'led'
p1880
F0.00012914890869172155
sS'samplerates'
p1881
F0.00012914890869172155
sS'let'
p1882
F0.0002582978173834431
sS'chrippa'
p1883
F0.00012914890869172155
sS'z0'
p1884
F0.00019372336303758234
sS'suggest'
p1885
F0.00012914890869172155
sS'great'
p1886
F0.00012914890869172155
sS'38'
p1887
F0.0048430840759395586
sS'technical'
p1888
F0.0002582978173834431
sS'32'
p1889
F0.00019372336303758234
sS'31'
p1890
F0.0002582978173834431
sS'30'
p1891
F0.00032287227172930386
sS'ctx'
p1892
F0.0015497869043006587
sS'36'
p1893
F0.00032287227172930386
sS'34'
p1894
F0.00019372336303758234
sS'nsstring'
p1895
F0.001162340178225494
sS'products'
p1896
F0.00096861681518791169
sS'implement'
p1897
F6.4574454345860775e-05
sS'composed'
p1898
F6.4574454345860775e-05
sS'superuser'
p1899
F0.00012914890869172155
sS'named'
p1900
F6.4574454345860775e-05
sS'addresses'
p1901
F6.4574454345860775e-05
sS'claim'
p1902
F6.4574454345860775e-05
sS'win'
p1903
F0.00038744672607516468
sS'app'
p1904
F0.00090404236084205088
sS'dedicated'
p1905
F0.0005165956347668862
sS'private'
p1906
F0.00096861681518791169
sS'api'
p1907
F0.00019372336303758234
sS'names'
p1908
F6.4574454345860775e-05
sS'apply'
p1909
F0.00032287227172930386
sS'tools'
p1910
F0.00038744672607516468
sS'2eibubx'
p1911
F6.4574454345860775e-05
sS'use'
p1912
F0.0014852124499547979
sS'from'
p1913
F0.0023892548107968489
sS'zip'
p1914
F0.0005165956347668862
sS'remains'
p1915
F0.00012914890869172155
sS'kosh'
p1916
F0.0002582978173834431
sS'wrinkle_blur'
p1917
F0.00012914890869172155
sS'few'
p1918
F0.00012914890869172155
sS'camera'
p1919
F0.00012914890869172155
sS'cyfraclick'
p1920
F0.00071031899780446854
sS'cheeks'
p1921
F6.4574454345860775e-05
sS'sort'
p1922
F6.4574454345860775e-05
sS'charcoal'
p1923
F6.4574454345860775e-05
sS'red5'
p1924
F6.4574454345860775e-05
sS'comparison'
p1925
F6.4574454345860775e-05
sS'started'
p1926
F0.00045202118042102544
sS"se's"
p1927
F6.4574454345860775e-05
sS'terminateanderasefile'
p1928
F0.00064574454345860772
sS'growingagreenerworld'
p1929
F0.00038744672607516468
sS'baby'
p1930
F0.00012914890869172155
sS'getstructuringelement'
p1931
F0.00012914890869172155
sS'had'
p1932
F0.00019372336303758234
sS'customer'
p1933
F6.4574454345860775e-05
sS'glitching'
p1934
F0.00012914890869172155
sS'account'
p1935
F0.00045202118042102544
sS'f'
F6.4574454345860775e-05
sS'this'
p1936
F0.0055534030737440267
sS'tag'
p1937
F0.0016789358129923801
sS'thin'
p1938
F6.4574454345860775e-05
sS'control'
p1939
F6.4574454345860775e-05
sS'links'
p1940
F6.4574454345860775e-05
sS'recordservice'
p1941
F0.00077489345215032935
sS'process'
p1942
F0.0002582978173834431
sS'high'
p1943
F0.00045202118042102544
sS'hotmail'
p1944
F0.00019372336303758234
sS'pulling'
p1945
F6.4574454345860775e-05
sS'something'
p1946
F0.00090404236084205088
sS'tab'
p1947
F0.0014206379956089371
sS'onoutgoingcallstarted'
p1948
F0.00038744672607516468
sS'synchronise'
p1949
F6.4574454345860775e-05
sS'native'
p1950
F0.0005165956347668862
sS'educational'
p1951
F6.4574454345860775e-05
sS'dependency'
p1952
F6.4574454345860775e-05
sS'afa'
p1953
F6.4574454345860775e-05
sS'varies'
p1954
F0.00012914890869172155
sS'narn'
p1955
F0.00012914890869172155
sS'hormones'
p1956
F6.4574454345860775e-05
sS'kalkulator'
p1957
F0.00012914890869172155
sS'npm'
p1958
F0.00038744672607516468
sS'especial'
p1959
F6.4574454345860775e-05
sS'watch'
p1960
F0.0002582978173834431
sS'immersed'
p1961
F0.00012914890869172155
sS'philosophy'
p1962
F6.4574454345860775e-05
sS"sample's"
p1963
F6.4574454345860775e-05
sS'discomfort'
p1964
F0.00012914890869172155
sS'fits'
p1965
F6.4574454345860775e-05
sS'spelling'
p1966
F6.4574454345860775e-05
sS'alloc'
p1967
F0.00058117008911274701
sS'light'
p1968
F0.00038744672607516468
sS'lines'
p1969
F0.00019372336303758234
sS'seturl'
p1970
F0.00019372336303758234
sS'or'
p1971
F0.0027767015368720133
sS'allow'
p1972
F0.00019372336303758234
sS'image32s'
p1973
F0.00038744672607516468
sS'doubtful'
p1974
F6.4574454345860775e-05
sS'boils'
p1975
F6.4574454345860775e-05
sS"won't"
p1976
F0.00012914890869172155
sS'looks'
p1977
F0.00019372336303758234
sS'cvtcolor'
p1978
F0.00012914890869172155
sS'freezes'
p1979
F0.00012914890869172155
sS'galaxy'
p1980
F6.4574454345860775e-05
sS'gestational'
p1981
F6.4574454345860775e-05
sS'lg'
p1982
F6.4574454345860775e-05
sS'curl_setopt'
p1983
F0.0002582978173834431
sS'la'
p1984
F6.4574454345860775e-05
sS'operatclick'
p1985
F0.00032287227172930386
sS'wherever'
p1986
F0.00012914890869172155
sS'li'
p1987
F0.0064574454345860781
sS'lt'
p1988
F0.00019372336303758234
sS'2015'
p1989
F0.00090404236084205088
sS'2016'
p1990
F0.00012914890869172155
sS'spreading'
p1991
F6.4574454345860775e-05
sS'pending'
p1992
F6.4574454345860775e-05
sS'ly'
p1993
F6.4574454345860775e-05
sS'crash'
p1994
F6.4574454345860775e-05
sS'greater'
p1995
F6.4574454345860775e-05
sS'python'
p1996
F0.001162340178225494
sS'docs'
p1997
F0.00012914890869172155
sS'mention'
p1998
F0.00012914890869172155
sS'spikes'
p1999
F0.00012914890869172155
sS'day'
p2000
F0.0002582978173834431
sS'edit'
p2001
F6.4574454345860775e-05
sS'callrecorder1loadcallsinsql'
p2002
F0.0010331912695337724
sS'l2'
p2003
F6.4574454345860775e-05
sS'10px'
p2004
F0.00019372336303758234
sS'upward'
p2005
F6.4574454345860775e-05
sS'doing'
p2006
F0.00038744672607516468
sS'product'
p2007
F6.4574454345860775e-05
sS'meta'
p2008
F0.00045202118042102544
sS'static'
p2009
F0.00038744672607516468
sS'cpanel'
p2010
F6.4574454345860775e-05
sS'measure'
p2011
F6.4574454345860775e-05
sS'our'
p2012
F0.00012914890869172155
sS'out'
p2013
F0.00077489345215032935
sS'matrix'
p2014
F6.4574454345860775e-05
sS"'"
F0.0052305308020147226
sS"'unable"
p2015
F0.00012914890869172155
sS'getextras'
p2016
F0.00012914890869172155
sS'messenger'
p2017
F6.4574454345860775e-05
sS'rel'
p2018
F0.0047139351672478369
sS'adaptive'
p2019
F0.0002582978173834431
sS'integrated'
p2020
F6.4574454345860775e-05
sS'red'
p2021
F0.00012914890869172155
sS'frank'
p2022
F0.00019372336303758234
sS'device_country'
p2023
F0.00077489345215032935
sS'completely'
p2024
F6.4574454345860775e-05
sS'que'
p2025
F6.4574454345860775e-05
sS'her'
p2026
F6.4574454345860775e-05
sS'g'
F6.4574454345860775e-05
sS'theese'
p2027
F0.00012914890869172155
sS'could'
p2028
F0.0002582978173834431
sS'safdsf'
p2029
F6.4574454345860775e-05
sS'0x00000008'
p2030
F6.4574454345860775e-05
sS'feasible'
p2031
F6.4574454345860775e-05
sS'length'
p2032
F0.00038744672607516468
sS'ltd'
p2033
F0.00012914890869172155
sS'hence'
p2034
F6.4574454345860775e-05
sS'invisible'
p2035
F6.4574454345860775e-05
sS'curl_init'
p2036
F0.00012914890869172155
sS'powerful'
p2037
F0.00012914890869172155
sS'scene'
p2038
F6.4574454345860775e-05
sS'echo'
p2039
F0.0005165956347668862
sS'soundbeep'
p2040
F0.0005165956347668862
sS"have'"
p2041
F6.4574454345860775e-05
sS'owner'
p2042
F0.00012914890869172155
sS'quality'
p2043
F6.4574454345860775e-05
sS'wasringing'
p2044
F0.00064574454345860772
sS'nsmutableurlrequest'
p2045
F0.00038744672607516468
sS"you're"
p2046
F6.4574454345860775e-05
sS'reference'
p2047
F6.4574454345860775e-05
sS'asfsdafasf'
p2048
F6.4574454345860775e-05
sS'22dtc4c'
p2049
F0.00012914890869172155
sS'guys'
p2050
F0.00012914890869172155
sS'ibaction'
p2051
F0.00019372336303758234
sS'system'
p2052
F0.0036161694433682035
sS"'75"
p2053
F6.4574454345860775e-05
sS'their'
p2054
F0.00019372336303758234
sS'attack'
p2055
F0.00012914890869172155
sS'final'
p2056
F0.00012914890869172155
sS'gear'
p2057
F0.00019372336303758234
sS'completed'
p2058
F6.4574454345860775e-05
sS'exactly'
p2059
F0.00019372336303758234
sS'returningresponse'
p2060
F0.00019372336303758234
sS'curl_exec'
p2061
F0.00012914890869172155
sS'thresh'
p2062
F0.0015497869043006587
sS'resistance'
p2063
F6.4574454345860775e-05
sS'getactivespreadsheet'
p2064
F0.00012914890869172155
sS'pendejadas'
p2065
F6.4574454345860775e-05
sS"'referer'"
p2066
F0.00012914890869172155
sS'bother'
p2067
F6.4574454345860775e-05
sS'simplexml_load_string'
p2068
F0.00012914890869172155
sS'providing'
p2069
F6.4574454345860775e-05
sS'false'
p2070
F0.0013560635412630763
sS'tabs'
p2071
F0.00038744672607516468
sS'wittgenstein'
p2072
F6.4574454345860775e-05
sS'have'
p2073
F0.0029704248999095958
sS'need'
p2074
F0.0012269146325713548
sS'turn'
p2075
F6.4574454345860775e-05
sS'border'
p2076
F0.0002582978173834431
sS'linked'
p2077
F6.4574454345860775e-05
sS'min'
p2078
F0.0002582978173834431
sS'babel'
p2079
F6.4574454345860775e-05
sS'able'
p2080
F0.00032287227172930386
sS'mid'
p2081
F6.4574454345860775e-05
sS'arm'
p2082
F0.00012914890869172155
sS'which'
p2083
F0.00064574454345860772
sS'asshole'
p2084
F6.4574454345860775e-05
sS'sbjsonparser'
p2085
F0.00038744672607516468
sS'unless'
p2086
F0.00012914890869172155
sS'clash'
p2087
F6.4574454345860775e-05
sS'deploy'
p2088
F6.4574454345860775e-05
sS'adsfs'
p2089
F6.4574454345860775e-05
sS'who'
p2090
F0.00038744672607516468
sS'harmful'
p2091
F6.4574454345860775e-05
sS'connected'
p2092
F6.4574454345860775e-05
sS'device'
p2093
F0.00012914890869172155
sS'transcript'
p2094
F6.4574454345860775e-05
sS'why'
p2095
F0.0002582978173834431
sS'realtor'
p2096
F0.00012914890869172155
sS'radiating'
p2097
F6.4574454345860775e-05
sS'url'
p2098
F0.0016143613586465195
sS'request'
p2099
F0.0016789358129923801
sS'face'
p2100
F0.0002582978173834431
sS'looked'
p2101
F6.4574454345860775e-05
sS'se'
p2102
F6.4574454345860775e-05
sS'normally'
p2103
F0.00012914890869172155
sS'fact'
p2104
F6.4574454345860775e-05
sS'cvtype'
p2105
F0.0002582978173834431
sS'dbghelp'
p2106
F6.4574454345860775e-05
sS'philosophicus'
p2107
F6.4574454345860775e-05
sS'text'
p2108
F0.0012269146325713548
sS'mpeg_4'
p2109
F0.00012914890869172155
sS'anyway'
p2110
F6.4574454345860775e-05
sS'bring'
p2111
F6.4574454345860775e-05
sS'guey'
p2112
F6.4574454345860775e-05
sS'getaction'
p2113
F0.00012914890869172155
sS'30px'
p2114
F6.4574454345860775e-05
sS'based'
p2115
F0.00012914890869172155
sS'should'
p2116
F0.0005165956347668862
sS'buttons'
p2117
F0.00064574454345860772
sS'5px'
p2118
F6.4574454345860775e-05
sS'he'
p2119
F0.00096861681518791169
sS'hope'
p2120
F0.0002582978173834431
sS'zvrm3'
p2121
F0.00012914890869172155
sS'regularly'
p2122
F0.00012914890869172155
sS'means'
p2123
F0.00012914890869172155
sS'listener'
p2124
F0.00064574454345860772
sS'community'
p2125
F0.00012914890869172155
sS'ones'
p2126
F0.00019372336303758234
sS'timing'
p2127
F0.00012914890869172155
sS'years'
p2128
F6.4574454345860775e-05
sS'areas'
p2129
F0.00012914890869172155
sS'course'
p2130
F0.00038744672607516468
sS'h'
F0.00019372336303758234
sS'fixes'
p2131
F0.0002582978173834431
sS'calling'
p2132
F0.00032287227172930386
sS'malwaretips'
p2133
F6.4574454345860775e-05
sS'stuff'
p2134
F0.00019372336303758234
sS'blogspot'
p2135
F0.00012914890869172155
sS'savedcontext'
p2136
F0.00077489345215032935
sS'echando'
p2137
F6.4574454345860775e-05
sS'generations'
p2138
F6.4574454345860775e-05
sS'view'
p2139
F0.0002582978173834431
sS'enhancer'
p2140
F6.4574454345860775e-05
sS'available'
p2141
F6.4574454345860775e-05
sS'dict_lo'
p2142
F6.4574454345860775e-05
sS'135'
p2143
F0.00012914890869172155
sS'pinout'
p2144
F6.4574454345860775e-05
sS'module'
p2145
F6.4574454345860775e-05
sS'intensity'
p2146
F6.4574454345860775e-05
sS'computer'
p2147
F0.00032287227172930386
sS'skateboarding'
p2148
F0.00038744672607516468
sS'imread'
p2149
F0.00012914890869172155
sS'btn'
p2150
F0.00045202118042102544
sS'amigcgbheognjmfkaieeeadojiibgbdp'
p2151
F6.4574454345860775e-05
sS'gmail'
p2152
F0.0002582978173834431
sS'sleepingdragon1'
p2153
F0.00012914890869172155
sS'athlon'
p2154
F0.00012914890869172155
sS'placed'
p2155
F6.4574454345860775e-05
sS'mconstants'
p2156
F0.0016789358129923801
sS'methodandargscaller'
p2157
F0.0002582978173834431
sS'lua'
p2158
F0.00012914890869172155
sS'state'
p2159
F0.0016143613586465195
sS'fifties'
p2160
F6.4574454345860775e-05
sS'neither'
p2161
F6.4574454345860775e-05
sS'curlopt_url'
p2162
F0.00012914890869172155
sS'email'
p2163
F0.00083946790649619006
sS'opening'
p2164
F0.00019372336303758234
sS'sorrow'
p2165
F6.4574454345860775e-05
sS'implementing'
p2166
F6.4574454345860775e-05
sS'job'
p2167
F0.0002582978173834431
sS'atreides'
p2168
F6.4574454345860775e-05
sS'key'
p2169
F0.00077489345215032935
sS'configuration'
p2170
F0.00012914890869172155
sS'distribution'
p2171
F6.4574454345860775e-05
sS'50px'
p2172
F0.00019372336303758234
sS'thank'
p2173
F0.00032287227172930386
sS'commands'
p2174
F6.4574454345860775e-05
sS'99444'
p2175
F0.00012914890869172155
sS'career'
p2176
F0.00012914890869172155
sS'etc'
p2177
F0.00019372336303758234
sS'ioexception'
p2178
F0.0002582978173834431
sS'placebo'
p2179
F6.4574454345860775e-05
sS'lxqt'
p2180
F0.00019372336303758234
sS'relevant'
p2181
F6.4574454345860775e-05
sS'co'
p2182
F0.00019372336303758234
sS'cc'
p2183
F0.00019372336303758234
sS'retr_floodfill'
p2184
F0.00012914890869172155
sS'ce'
p2185
F6.4574454345860775e-05
sS'cd'
p2186
F0.00012914890869172155
sS'interface'
p2187
F6.4574454345860775e-05
sS'balistic'
p2188
F6.4574454345860775e-05
sS'lshift'
p2189
F0.0010331912695337724
sS'table'
p2190
F0.00090404236084205088
sS'statuscode'
p2191
F0.00058117008911274701
sS'mailto'
p2192
F0.00012914890869172155
sS"it's"
p2193
F0.00064574454345860772
sS'ai'
p2194
F0.00012914890869172155
sS'json'
p2195
F0.00038744672607516468
sS'copied'
p2196
F0.00012914890869172155
sS'shoulders'
p2197
F6.4574454345860775e-05
sS'mika'
p2198
F6.4574454345860775e-05
sS'smokedetector'
p2199
F6.4574454345860775e-05
sS'binning'
p2200
F6.4574454345860775e-05
sS"'xxx'"
p2201
F0.00038744672607516468
sS'hmm'
p2202
F0.00012914890869172155
sS'controller'
p2203
F0.00038744672607516468
sS'graphics'
p2204
F0.00012914890869172155
sS'an'
p2205
F0.002001808084721684
sS'g729'
p2206
F6.4574454345860775e-05
sS'multi'
p2207
F6.4574454345860775e-05
sS'novel'
p2208
F6.4574454345860775e-05
sS'laser'
p2209
F0.00012914890869172155
sS'itsolution'
p2210
F0.00019372336303758234
sS'align'
p2211
F0.00038744672607516468
sS'value'
p2212
F0.0021309569934134056
sS'will'
p2213
F0.00096861681518791169
sS'onincomingcallended'
p2214
F0.00038744672607516468
sS'fault'
p2215
F6.4574454345860775e-05
sS"'there"
p2216
F0.0002582978173834431
sS'getsystemservice'
p2217
F0.00012914890869172155
sS'cv_load_image_grayscale'
p2218
F0.00012914890869172155
sS'file'
p2219
F0.001162340178225494
sS'manually'
p2220
F0.00012914890869172155
sS'almost'
p2221
F0.00019372336303758234
sS'demo'
p2222
F0.00012914890869172155
sS'thus'
p2223
F0.00012914890869172155
sS'site'
p2224
F0.00083946790649619006
sS"'returnlocation'"
p2225
F6.4574454345860775e-05
sS'hardware'
p2226
F0.00012914890869172155
sS'lightweight'
p2227
F0.00012914890869172155
sS'dictonary'
p2228
F0.00019372336303758234
sS'pragraph'
p2229
F0.00012914890869172155
sS'dilate'
p2230
F0.0002582978173834431
sS'generic'
p2231
F6.4574454345860775e-05
sS'weathers'
p2232
F6.4574454345860775e-05
sS'cross'
p2233
F0.00012914890869172155
sS'camus'
p2234
F6.4574454345860775e-05
sS'auto'
p2235
F6.4574454345860775e-05
sS'party'
p2236
F6.4574454345860775e-05
sS'android'
p2237
F0.0021309569934134056
sS'outputformat'
p2238
F0.00012914890869172155
sS'callreceiver'
p2239
F0.00077489345215032935
sS'http'
p2240
F0.0047139351672478369
sS'reporting'
p2241
F6.4574454345860775e-05
sS'upon'
p2242
F0.00012914890869172155
sS'effect'
p2243
F6.4574454345860775e-05
sS'stringwithformat'
p2244
F0.00019372336303758234
sS'never'
p2245
F0.00012914890869172155
sS'php'
p2246
F0.00058117008911274701
sS'login'
p2247
F0.00077489345215032935
sS'forhost'
p2248
F0.00019372336303758234
sS'center'
p2249
F0.00096861681518791169
sS'acknowledgement'
p2250
F0.00012914890869172155
sS'i'
F0.013431486503939041
sS'weapon'
p2251
F6.4574454345860775e-05
sS'systematixindia'
p2252
F0.00012914890869172155
sS'well'
p2253
F6.4574454345860775e-05
sS'thought'
p2254
F0.00012914890869172155
sS'command'
p2255
F6.4574454345860775e-05
sS'walor2'
p2256
F0.00038744672607516468
sS'audio'
p2257
F0.0002582978173834431
sS'walor1'
p2258
F0.0005165956347668862
sS'latest'
p2259
F0.00012914890869172155
sS'less'
p2260
F0.00019372336303758234
sS'color_gray2bgr'
p2261
F0.00012914890869172155
sS'keeping'
p2262
F6.4574454345860775e-05
sS'sethttpbody'
p2263
F0.00019372336303758234
sS'skincare'
p2264
F6.4574454345860775e-05
sS'49983'
p2265
F0.00012914890869172155
sS'elf_search_auxv'
p2266
F6.4574454345860775e-05
sS'rooms'
p2267
F6.4574454345860775e-05
sS'casper'
p2268
F6.4574454345860775e-05
sS'skill'
p2269
F6.4574454345860775e-05
sS'web'
p2270
F0.0005165956347668862
sS'console'
p2271
F6.4574454345860775e-05
sS'unsigned'
p2272
F0.0002582978173834431
sS'capabilities'
p2273
F0.00012914890869172155
sS'transparent'
p2274
F0.00012914890869172155
sS'add'
p2275
F0.00077489345215032935
sS'book'
p2276
F0.00012914890869172155
sS'extends'
p2277
F0.00038744672607516468
sS'voila'
p2278
F6.4574454345860775e-05
sS'usage'
p2279
F0.00012914890869172155
sS'digium'
p2280
F6.4574454345860775e-05
sS'ought'
p2281
F0.00012914890869172155
sS'fixme'
p2282
F6.4574454345860775e-05
sS'know'
p2283
F0.00083946790649619006
sS'el_gr'
p2284
F0.00012914890869172155
sS'537'
p2285
F0.0002582978173834431
sS'password'
p2286
F0.00019372336303758234
sS'insert'
p2287
F0.0019372336303758234
sS'showing'
p2288
F0.00012914890869172155
sS'like'
p2289
F0.0014852124499547979
sS'success'
p2290
F0.0010977657238796332
sS'install'
p2291
F0.0005165956347668862
sS'cosas'
p2292
F6.4574454345860775e-05
sS'brightonyouthcentre'
p2293
F0.00038744672607516468
sS'sarajevo'
p2294
F6.4574454345860775e-05
sS'lose'
p2295
F6.4574454345860775e-05
sS'become'
p2296
F6.4574454345860775e-05
sS'works'
p2297
F0.00045202118042102544
sS'page'
p2298
F0.00083946790649619006
sS'because'
p2299
F0.00038744672607516468
sS'searching'
p2300
F6.4574454345860775e-05
sS'115'
p2301
F0.00012914890869172155
sS'117'
p2302
F0.00012914890869172155
sS'david2020'
p2303
F6.4574454345860775e-05
sS'110'
p2304
F6.4574454345860775e-05
sS'proper'
p2305
F0.00012914890869172155
sS'home'
p2306
F0.0019372336303758234
sS'amzn'
p2307
F0.0002582978173834431
sS'happens'
p2308
F6.4574454345860775e-05
sS'est'
p2309
F0.00038744672607516468
sS'lead'
p2310
F0.00012914890869172155
sS'avoid'
p2311
F6.4574454345860775e-05
sS'notesetter'
p2312
F0.00012914890869172155
sS'tooltip'
p2313
F0.00064574454345860772
sS'does'
p2314
F0.0010331912695337724
sS'noise'
p2315
F0.00077489345215032935
sS'justmoon'
p2316
F0.00012914890869172155
sS'host'
p2317
F0.0002582978173834431
sS'although'
p2318
F6.4574454345860775e-05
sS'offset'
p2319
F6.4574454345860775e-05
sS'zips'
p2320
F0.0002582978173834431
sS'shopify'
p2321
F6.4574454345860775e-05
sS'adf07eaeeb9a86836325aa5677a034ede'
p2322
F0.00012914890869172155
sS'about'
p2323
F0.0014852124499547979
sS'actual'
p2324
F6.4574454345860775e-05
sS'testosterone'
p2325
F0.00045202118042102544
sS'getting'
p2326
F0.00038744672607516468
sS'compatible'
p2327
F0.00012914890869172155
sS'mysqli_store_result'
p2328
F0.00012914890869172155
sS'toomanytabs'
p2329
F0.00012914890869172155
sS'2677'
p2330
F6.4574454345860775e-05
sS'cranberry'
p2331
F6.4574454345860775e-05
sS'submited'
p2332
F6.4574454345860775e-05
sS'software'
p2333
F0.00032287227172930386
sS'em'
p2334
F0.001162340178225494
sS'highgui'
p2335
F0.001162340178225494
sS'own'
p2336
F0.00038744672607516468
sS'implementaci'
p2337
F6.4574454345860775e-05
sS'h2'
p2338
F0.0012914890869172154
sS'h3'
p2339
F0.00038744672607516468
sS'h1'
p2340
F0.00077489345215032935
sS'iuqa8'
p2341
F0.00012914890869172155
sS'included'
p2342
F0.0002582978173834431
sS'weather'
p2343
F0.00012914890869172155
sS'tiny'
p2344
F0.00032287227172930386
sS'nsexception'
p2345
F0.00019372336303758234
sS'utility'
p2346
F6.4574454345860775e-05
sS'ftyfhxwxbjw'
p2347
F6.4574454345860775e-05
sS'whom'
p2348
F6.4574454345860775e-05
sS'transfer'
p2349
F0.00012914890869172155
sS'apps'
p2350
F0.00012914890869172155
sS'trenches'
p2351
F6.4574454345860775e-05
sS'arg0'
p2352
F0.0002582978173834431
sS'var'
p2353
F0.001162340178225494
sS'function'
p2354
F0.00045202118042102544
sS'mailer'
p2355
F6.4574454345860775e-05
sS'buy'
p2356
F6.4574454345860775e-05
sS"i've"
p2357
F0.0002582978173834431
sS'hr'
p2358
F6.4574454345860775e-05
sS'hq'
p2359
F6.4574454345860775e-05
sS'but'
p2360
F0.0037453183520599251
sS'delivery'
p2361
F0.00019372336303758234
sS'hi'
p2362
F0.00012914890869172155
sS'hl'
p2363
F6.4574454345860775e-05
sS'straight'
p2364
F0.00012914890869172155
sS'mobiel'
p2365
F6.4574454345860775e-05
sS'squeeze'
p2366
F0.00019372336303758234
sS'oofia'
p2367
F0.00012914890869172155
sS'count'
p2368
F6.4574454345860775e-05
sS'made'
p2369
F0.00012914890869172155
sS'converter'
p2370
F0.00012914890869172155
sS'hitter'
p2371
F0.00012914890869172155
sS'hidownload'
p2372
F6.4574454345860775e-05
sS'cells'
p2373
F6.4574454345860775e-05
sS'j'
F0.00012914890869172155
sS'726'
p2374
F0.0002582978173834431
sS'record'
p2375
F0.0002582978173834431
sS'below'
p2376
F0.00058117008911274701
sS'converted'
p2377
F6.4574454345860775e-05
sS'empty'
p2378
F6.4574454345860775e-05
sS'bgvkw1'
p2379
F6.4574454345860775e-05
sS'problem'
p2380
F0.00058117008911274701
sS'jpeg_read_scanlines'
p2381
F6.4574454345860775e-05
sS'minutes'
p2382
F0.00012914890869172155
sS'display'
p2383
F0.00012914890869172155
sS'curlopt_returntransfer'
p2384
F0.00012914890869172155
sS'int'
p2385
F0.00096861681518791169
sS'inquisitor'
p2386
F0.00012914890869172155
sS'ink'
p2387
F0.0005165956347668862
sS'd20161017154436p38762667266tincomingmfalse'
p2388
F0.00012914890869172155
sS'api_feedback'
p2389
F6.4574454345860775e-05
sS'ingredients'
p2390
F0.00012914890869172155
sS"'1'"
p2391
F0.00012914890869172155
sS'44'
p2392
F0.0047139351672478369
sS'42'
p2393
F0.00019372336303758234
sS'detail'
p2394
F6.4574454345860775e-05
sS'40'
p2395
F0.00032287227172930386
sS'other'
p2396
F0.00058117008911274701
sS'details'
p2397
F0.0002582978173834431
sS'branch'
p2398
F0.00012914890869172155
sS'xmarks'
p2399
F0.00012914890869172155
sS'repeat'
p2400
F6.4574454345860775e-05
sS'tractatus'
p2401
F6.4574454345860775e-05
sS'class'
p2402
F0.0060054242541650524
sS'canvas'
p2403
F6.4574454345860775e-05
sS'precision'
p2404
F0.0002582978173834431
sS'onreceive'
p2405
F0.00012914890869172155
sS'kinda'
p2406
F6.4574454345860775e-05
sS"'comment'"
p2407
F0.00012914890869172155
sS'samsung'
p2408
F0.00012914890869172155
sS'resolution'
p2409
F0.00019372336303758234
sS'blogs'
p2410
F6.4574454345860775e-05
sS"cbr's"
p2411
F6.4574454345860775e-05
sS'from_email_admin'
p2412
F0.00012914890869172155
sS'extras'
p2413
F0.00012914890869172155
sS'searched'
p2414
F0.00038744672607516468
ssS'title'
p2415
(dp2416
S'all'
p2417
F0.0051493305870236872
sS'code'
p2418
F0.0041194644696189494
sS'resistance'
p2419
F0.0010298661174047373
sS'skin'
p2420
F0.0010298661174047373
sS'follow'
p2421
F0.0010298661174047373
sS'row'
p2422
F0.0020597322348094747
sS'flash'
p2423
F0.0020597322348094747
sS'tr'
p2424
F0.0010298661174047373
sS'suits'
p2425
F0.0010298661174047373
sS'0'
F0.003089598352214212
sS'bike'
p2426
F0.0010298661174047373
sS'sent'
p2427
F0.003089598352214212
sS'downloading'
p2428
F0.0010298661174047373
sS'courageous'
p2429
F0.0010298661174047373
sS'turns'
p2430
F0.0010298661174047373
sS'notes'
p2431
F0.0010298661174047373
sS'smaller'
p2432
F0.0010298661174047373
sS'sign'
p2433
F0.0010298661174047373
sS'second'
p2434
F0.0010298661174047373
sS'design'
p2435
F0.0010298661174047373
sS'what'
p2436
F0.003089598352214212
sS'advantageous'
p2437
F0.0010298661174047373
sS'clock'
p2438
F0.0010298661174047373
sS'cell'
p2439
F0.0010298661174047373
sS'template'
p2440
F0.003089598352214212
sS'net'
p2441
F0.0020597322348094747
sS'3d'
p2442
F0.0010298661174047373
sS'exchange'
p2443
F0.0010298661174047373
sS'respectively'
p2444
F0.0010298661174047373
sS'met'
p2445
F0.0010298661174047373
sS'objects'
p2446
F0.0020597322348094747
sS'groups'
p2447
F0.0010298661174047373
sS'ubuntu'
p2448
F0.0010298661174047373
sS'100'
p2449
F0.0020597322348094747
sS'change'
p2450
F0.0020597322348094747
sS'32'
p2451
F0.0061791967044284241
sS'2049'
p2452
F0.003089598352214212
sS'suggestion'
p2453
F0.0010298661174047373
sS'9550'
p2454
F0.0020597322348094747
sS'aka'
p2455
F0.0010298661174047373
sS'changes'
p2456
F0.0010298661174047373
sS'firefox'
p2457
F0.0010298661174047373
sS'divide'
p2458
F0.0010298661174047373
sS'adidas'
p2459
F0.003089598352214212
sS'app'
p2460
F0.0010298661174047373
sS'bloody'
p2461
F0.0010298661174047373
sS'screens'
p2462
F0.0010298661174047373
sS'bookmarks'
p2463
F0.0010298661174047373
sS'from'
p2464
F0.0010298661174047373
sS'would'
p2465
F0.0010298661174047373
sS'to'
p2466
F0.039134912461380018
sS'give'
p2467
F0.0010298661174047373
sS'two'
p2468
F0.0041194644696189494
sS'call'
p2469
F0.0020597322348094747
sS'memory'
p2470
F0.0010298661174047373
sS'type'
p2471
F0.0020597322348094747
sS'is'
p2472
F0.0082389289392378988
sS'sort'
p2473
F0.0010298661174047373
sS'knows'
p2474
F0.0010298661174047373
sS'relay'
p2475
F0.0010298661174047373
sS'started'
p2476
F0.0020597322348094747
sS'company'
p2477
F0.0010298661174047373
sS'it'
p2478
F0.0041194644696189494
sS'phone'
p2479
F0.0010298661174047373
sS'visual'
p2480
F0.0010298661174047373
sS'endomondo'
p2481
F0.0010298661174047373
sS'baby'
p2482
F0.0010298661174047373
sS'gnome'
p2483
F0.0010298661174047373
sS'account'
p2484
F0.0020597322348094747
sS'_nsarraym'
p2485
F0.003089598352214212
sS'err'
p2486
F0.0020597322348094747
sS'this'
p2487
F0.0061791967044284241
sS'equation'
p2488
F0.0020597322348094747
sS'xingji'
p2489
F0.0010298661174047373
sS'can'
p2490
F0.0010298661174047373
sS'install'
p2491
F0.0020597322348094747
sS'my'
p2492
F0.003089598352214212
sS'heart'
p2493
F0.0010298661174047373
sS'compare'
p2494
F0.0010298661174047373
sS'wang'
p2495
F0.0010298661174047373
sS'links'
p2496
F0.0010298661174047373
sS'kosh'
p2497
F0.0020597322348094747
sS'sapho'
p2498
F0.0010298661174047373
sS'india'
p2499
F0.0010298661174047373
sS'sample'
p2500
F0.0010298661174047373
sS'minimum'
p2501
F0.0010298661174047373
sS'magento'
p2502
F0.0010298661174047373
sS'numbers'
p2503
F0.0051493305870236872
sS'tab'
p2504
F0.0010298661174047373
sS'exclude'
p2505
F0.0010298661174047373
sS'keep'
p2506
F0.0010298661174047373
sS'malware'
p2507
F0.0010298661174047373
sS'end'
p2508
F0.0020597322348094747
sS'verify'
p2509
F0.0010298661174047373
sS'1'
F0.003089598352214212
sS'how'
p2510
F0.014418125643666324
sS'hot'
p2511
F0.0020597322348094747
sS'bunt'
p2512
F0.0010298661174047373
sS'instead'
p2513
F0.0010298661174047373
sS'npm'
p2514
F0.0020597322348094747
sS'crashes'
p2515
F0.0010298661174047373
sS'stop'
p2516
F0.0020597322348094747
sS'after'
p2517
F0.0010298661174047373
sS'spot'
p2518
F0.003089598352214212
sS'londo'
p2519
F0.0020597322348094747
sS'catalog'
p2520
F0.0010298661174047373
sS'lat'
p2521
F0.0010298661174047373
sS'horizontal'
p2522
F0.0010298661174047373
sS'law'
p2523
F0.0010298661174047373
sS'types'
p2524
F0.003089598352214212
sS'a'
F0.014418125643666324
sS'third'
p2525
F0.0010298661174047373
sS'dragon'
p2526
F0.0010298661174047373
sS'so'
p2527
F0.0010298661174047373
sS'wine'
p2528
F0.0010298661174047373
sS'senators'
p2529
F0.0010298661174047373
sS"cell's"
p2530
F0.0010298661174047373
sS'help'
p2531
F0.0010298661174047373
sS"don't"
p2532
F0.0010298661174047373
sS'chatbot'
p2533
F0.0010298661174047373
sS'entity'
p2534
F0.0020597322348094747
sS'episodes'
p2535
F0.0010298661174047373
sS'paper'
p2536
F0.0020597322348094747
sS'keyboard'
p2537
F0.0020597322348094747
sS'galaxy'
p2538
F0.0010298661174047373
sS'gestational'
p2539
F0.0010298661174047373
sS'write'
p2540
F0.0010298661174047373
sS'monitor'
p2541
F0.0010298661174047373
sS'arduino'
p2542
F0.0020597322348094747
sS'better'
p2543
F0.0020597322348094747
sS'detected'
p2544
F0.0020597322348094747
sS'differently'
p2545
F0.0020597322348094747
sS'weeks'
p2546
F0.0010298661174047373
sS'2016'
p2547
F0.003089598352214212
sS'then'
p2548
F0.0051493305870236872
sS'them'
p2549
F0.0020597322348094747
sS'good'
p2550
F0.0020597322348094747
sS'crash'
p2551
F0.0020597322348094747
sS'python'
p2552
F0.0020597322348094747
sS'records'
p2553
F0.0010298661174047373
sS'not'
p2554
F0.013388259526261586
sS'resizing'
p2555
F0.0010298661174047373
sS'now'
p2556
F0.0010298661174047373
sS'bullshit'
p2557
F0.0010298661174047373
sS'name'
p2558
F0.0020597322348094747
sS'libjpeg'
p2559
F0.0010298661174047373
sS'merge'
p2560
F0.0020597322348094747
sS'bone'
p2561
F0.0010298661174047373
sS'another'
p2562
F0.0010298661174047373
sS'series'
p2563
F0.0010298661174047373
sS'bluetooth'
p2564
F0.0010298661174047373
sS'cpanel'
p2565
F0.0010298661174047373
sS'combining'
p2566
F0.0010298661174047373
sS'loops'
p2567
F0.003089598352214212
sS'out'
p2568
F0.0010298661174047373
sS'15a'
p2569
F0.0010298661174047373
sS'alcohol'
p2570
F0.0010298661174047373
sS'space'
p2571
F0.0010298661174047373
sS'open'
p2572
F0.0010298661174047373
sS'resistor'
p2573
F0.0010298661174047373
sS'asp'
p2574
F0.0020597322348094747
sS'symbian'
p2575
F0.0010298661174047373
sS'bayes'
p2576
F0.0010298661174047373
sS'mysqli'
p2577
F0.0020597322348094747
sS'training'
p2578
F0.0010298661174047373
sS'geometry'
p2579
F0.0010298661174047373
sS'230v'
p2580
F0.0010298661174047373
sS'filter'
p2581
F0.0010298661174047373
sS'mvc'
p2582
F0.0020597322348094747
sS'w'
F0.003089598352214212
sS'first'
p2583
F0.0010298661174047373
sS'origin'
p2584
F0.0020597322348094747
sS'organize'
p2585
F0.0010298661174047373
sS'dont'
p2586
F0.0010298661174047373
sS'number'
p2587
F0.003089598352214212
sS'one'
p2588
F0.0041194644696189494
sS'customization'
p2589
F0.0010298661174047373
sS'owner'
p2590
F0.0010298661174047373
sS'message'
p2591
F0.0020597322348094747
sS'quality'
p2592
F0.0010298661174047373
sS'dysfunction'
p2593
F0.0010298661174047373
sS'sheet'
p2594
F0.0010298661174047373
sS'2'
F0.003089598352214212
sS'superpoweredadvancedaudioplayer'
p2595
F0.0020597322348094747
sS'white'
p2596
F0.0010298661174047373
sS'dfa'
p2597
F0.0010298661174047373
sS'store'
p2598
F0.0010298661174047373
sS'too'
p2599
F0.003089598352214212
sS'aurelia'
p2600
F0.0020597322348094747
sS'that'
p2601
F0.0041194644696189494
sS'season'
p2602
F0.0020597322348094747
sS'selector'
p2603
F0.003089598352214212
sS'erectile'
p2604
F0.0010298661174047373
sS'ridiculous'
p2605
F0.0010298661174047373
sS'gyp'
p2606
F0.0020597322348094747
sS'translation'
p2607
F0.0010298661174047373
sS'than'
p2608
F0.0010298661174047373
sS'updating'
p2609
F0.0020597322348094747
sS'jquery'
p2610
F0.0010298661174047373
sS'10'
p2611
F0.0041194644696189494
sS'15'
p2612
F0.0020597322348094747
sS'14'
p2613
F0.003089598352214212
sS'16'
p2614
F0.0010298661174047373
sS'18'
p2615
F0.0061791967044284241
sS'require'
p2616
F0.0010298661174047373
sS'iteration'
p2617
F0.0010298661174047373
sS'rate'
p2618
F0.0010298661174047373
sS'project'
p2619
F0.0010298661174047373
sS'blogs'
p2620
F0.0010298661174047373
sS'r'
F0.0020597322348094747
sS'video'
p2621
F0.003089598352214212
sS'browser'
p2622
F0.0010298661174047373
sS'and'
p2623
F0.01132852729145211
sS'mini'
p2624
F0.0020597322348094747
sS'runner'
p2625
F0.0010298661174047373
sS'dash'
p2626
F0.0010298661174047373
sS'klsafd'
p2627
F0.0010298661174047373
sS'have'
p2628
F0.0010298661174047373
sS'orders'
p2629
F0.0010298661174047373
sS'acceleration'
p2630
F0.0010298661174047373
sS'zero'
p2631
F0.0010298661174047373
sS'note'
p2632
F0.0010298661174047373
sS'also'
p2633
F0.003089598352214212
sS'146460'
p2634
F0.003089598352214212
sS'which'
p2635
F0.0010298661174047373
sS'online'
p2636
F0.0010298661174047373
sS'play'
p2637
F0.0020597322348094747
sS'multiple'
p2638
F0.0010298661174047373
sS'exec'
p2639
F0.0010298661174047373
sS'buffer'
p2640
F0.0010298661174047373
sS'plan'
p2641
F0.0010298661174047373
sS'letter'
p2642
F0.0020597322348094747
sS'device'
p2643
F0.0010298661174047373
sS'pyqt4'
p2644
F0.0020597322348094747
sS'pages'
p2645
F0.0010298661174047373
sS'sfa'
p2646
F0.0010298661174047373
sS'webcam'
p2647
F0.0010298661174047373
sS'forever'
p2648
F0.0010298661174047373
sS'windows'
p2649
F0.0010298661174047373
sS'leaflet'
p2650
F0.0010298661174047373
sS'voting'
p2651
F0.0010298661174047373
sS'microsoft'
p2652
F0.0020597322348094747
sS'irs'
p2653
F0.0010298661174047373
sS'text'
p2654
F0.0020597322348094747
sS'cellwidget'
p2655
F0.0020597322348094747
sS'radio'
p2656
F0.0010298661174047373
sS'current'
p2657
F0.0010298661174047373
sS'trying'
p2658
F0.0010298661174047373
sS'clicked'
p2659
F0.0020597322348094747
sS'sequelize'
p2660
F0.0010298661174047373
sS'8'
F0.0010298661174047373
sS'stain'
p2661
F0.0010298661174047373
sS'do'
p2662
F0.0020597322348094747
sS'handle'
p2663
F0.0010298661174047373
sS'get'
p2664
F0.0041194644696189494
sS'watch'
p2665
F0.0010298661174047373
sS'ssd'
p2666
F0.0020597322348094747
sS'spikes'
p2667
F0.0020597322348094747
sS'bar'
p2668
F0.0010298661174047373
sS'bytes'
p2669
F0.0010298661174047373
sS'x'
F0.0020597322348094747
sS'where'
p2670
F0.0010298661174047373
sS'respond'
p2671
F0.0020597322348094747
sS'set'
p2672
F0.0020597322348094747
sS'fair'
p2673
F0.0010298661174047373
sS'computer'
p2674
F0.0010298661174047373
sS'injecting'
p2675
F0.0010298661174047373
sS'are'
p2676
F0.0020597322348094747
sS'recording'
p2677
F0.0020597322348094747
sS'detect'
p2678
F0.0020597322348094747
sS'04'
p2679
F0.0010298661174047373
sS'dropdown'
p2680
F0.0010298661174047373
sS'representatives'
p2681
F0.0010298661174047373
sS'3'
F0.003089598352214212
sS'conditions'
p2682
F0.0020597322348094747
sS'email'
p2683
F0.0010298661174047373
sS'we'
p2684
F0.0010298661174047373
sS'brewing'
p2685
F0.0010298661174047373
sS'missing'
p2686
F0.0010298661174047373
sS'javascript'
p2687
F0.0051493305870236872
sS'js'
p2688
F0.0010298661174047373
sS'job'
p2689
F0.0010298661174047373
sS'docker'
p2690
F0.0010298661174047373
sS'interface'
p2691
F0.0010298661174047373
sS'reverse'
p2692
F0.0010298661174047373
sS'career'
p2693
F0.0010298661174047373
sS'many'
p2694
F0.0010298661174047373
sS'requests'
p2695
F0.0020597322348094747
sS'whole'
p2696
F0.0020597322348094747
sS"can't"
p2697
F0.0020597322348094747
sS'con'
p2698
F0.0010298661174047373
sS'load'
p2699
F0.003089598352214212
sS'geolocation'
p2700
F0.0010298661174047373
sS'point'
p2701
F0.003089598352214212
sS'tons'
p2702
F0.0020597322348094747
sS"couldn't"
p2703
F0.0010298661174047373
sS'table'
p2704
F0.0010298661174047373
sS'java'
p2705
F0.0020597322348094747
sS'chrome'
p2706
F0.0010298661174047373
sS"it's"
p2707
F0.0010298661174047373
sS'create'
p2708
F0.0010298661174047373
sS'airlines'
p2709
F0.0010298661174047373
sS'helicopter'
p2710
F0.0010298661174047373
sS'adfa'
p2711
F0.0010298661174047373
sS'pm'
p2712
F0.0020597322348094747
sS'website'
p2713
F0.0020597322348094747
sS'hexanediol'
p2714
F0.0020597322348094747
sS'enable'
p2715
F0.0020597322348094747
sS'samples'
p2716
F0.0020597322348094747
sS'finale'
p2717
F0.0020597322348094747
sS'traversal'
p2718
F0.0010298661174047373
sS'input'
p2719
F0.0010298661174047373
sS'case'
p2720
F0.0020597322348094747
sS'g729'
p2721
F0.0010298661174047373
sS'juice'
p2722
F0.0010298661174047373
sS'will'
p2723
F0.0010298661174047373
sS'admin'
p2724
F0.0010298661174047373
sS'delll'
p2725
F0.0020597322348094747
sS'error'
p2726
F0.003089598352214212
sS'dipak'
p2727
F0.003089598352214212
sS'upgrade'
p2728
F0.0010298661174047373
sS'angularjs'
p2729
F0.0020597322348094747
sS'played'
p2730
F0.0020597322348094747
sS'calculator'
p2731
F0.0010298661174047373
sS'site'
p2732
F0.0010298661174047373
sS'sleeping'
p2733
F0.0010298661174047373
sS'vs'
p2734
F0.0010298661174047373
sS'in'
p2735
F0.022657054582904221
sS'rig'
p2736
F0.0010298661174047373
sS'rid'
p2737
F0.0010298661174047373
sS'34'
p2738
F0.0061791967044284241
sS'binary'
p2739
F0.0010298661174047373
sS'nike'
p2740
F0.0061791967044284241
sS'make'
p2741
F0.0051493305870236872
sS'cross'
p2742
F0.0020597322348094747
sS'same'
p2743
F0.0010298661174047373
sS'any'
p2744
F0.003089598352214212
sS'unrecognized'
p2745
F0.003089598352214212
sS'android'
p2746
F0.0020597322348094747
sS'status'
p2747
F0.0020597322348094747
sS'keys'
p2748
F0.0020597322348094747
sS'ios'
p2749
F0.0010298661174047373
sS'alert'
p2750
F0.0010298661174047373
sS'uses'
p2751
F0.0010298661174047373
sS'user'
p2752
F0.003089598352214212
sS'validate'
p2753
F0.0020597322348094747
sS'php'
p2754
F0.0010298661174047373
sS'stack'
p2755
F0.0010298661174047373
sS'mention'
p2756
F0.0010298661174047373
sS'i'
F0.0082389289392378988
sS'com'
p2757
F0.0020597322348094747
sS'anybody'
p2758
F0.0010298661174047373
sS'patterns'
p2759
F0.0010298661174047373
sS'directly'
p2760
F0.0010298661174047373
sS'components'
p2761
F0.0010298661174047373
sS'the'
p2762
F0.018537590113285273
sS'muscle'
p2763
F0.0010298661174047373
sS'objectforkey'
p2764
F0.003089598352214212
sS'alternative'
p2765
F0.0010298661174047373
sS'ethyl'
p2766
F0.0010298661174047373
sS'web'
p2767
F0.0010298661174047373
sS'classification'
p2768
F0.0020597322348094747
sS'instance'
p2769
F0.003089598352214212
sS'desktop'
p2770
F0.0020597322348094747
sS'opencv'
p2771
F0.0020597322348094747
sS'other'
p2772
F0.0010298661174047373
sS'easy'
p2773
F0.0010298661174047373
sS'relevance'
p2774
F0.0010298661174047373
sS'digium'
p2775
F0.0010298661174047373
sS'has'
p2776
F0.0020597322348094747
sS'match'
p2777
F0.003089598352214212
sS'real'
p2778
F0.0020597322348094747
sS'showing'
p2779
F0.0020597322348094747
sS'background'
p2780
F0.0010298661174047373
sS'using'
p2781
F0.003089598352214212
sS'0x7faf59e2fd10'
p2782
F0.003089598352214212
sS'mod'
p2783
F0.0020597322348094747
sS'insert'
p2784
F0.0010298661174047373
sS'like'
p2785
F0.0010298661174047373
sS'sizes'
p2786
F0.003089598352214212
sS'55'
p2787
F0.003089598352214212
sS'signal'
p2788
F0.0010298661174047373
sS'specific'
p2789
F0.003089598352214212
sS't'
F0.0020597322348094747
sS'output'
p2790
F0.003089598352214212
sS'works'
p2791
F0.0010298661174047373
sS'page'
p2792
F0.0051493305870236872
sS'www'
p2793
F0.0020597322348094747
sS'google'
p2794
F0.0020597322348094747
sS'some'
p2795
F0.0010298661174047373
sS'proper'
p2796
F0.0010298661174047373
sS'home'
p2797
F0.003089598352214212
sS'animate'
p2798
F0.0010298661174047373
sS'taxpayers'
p2799
F0.0010298661174047373
sS'for'
p2800
F0.012358393408856848
sS'philosopher'
p2801
F0.0010298661174047373
sS'track'
p2802
F0.0020597322348094747
sS'does'
p2803
F0.0072090628218331619
sS'exit'
p2804
F0.0010298661174047373
sS'420'
p2805
F0.003089598352214212
sS'be'
p2806
F0.0020597322348094747
sS'racers'
p2807
F0.0010298661174047373
sS'power'
p2808
F0.0010298661174047373
sS'304'
p2809
F0.0010298661174047373
sS'by'
p2810
F0.0010298661174047373
sS'_'
F0.003089598352214212
sS'on'
p2811
F0.01132852729145211
sS'working'
p2812
F0.0020597322348094747
sS'anything'
p2813
F0.0010298661174047373
sS'getting'
p2814
F0.003089598352214212
sS'column'
p2815
F0.0020597322348094747
sS'of'
p2816
F0.015447991761071062
sS'wrinkles'
p2817
F0.0020597322348094747
sS'compatible'
p2818
F0.0010298661174047373
sS'or'
p2819
F0.003089598352214212
sS'block'
p2820
F0.0010298661174047373
sS'into'
p2821
F0.0010298661174047373
sS'leniency'
p2822
F0.0010298661174047373
sS'appropriate'
p2823
F0.0010298661174047373
sS'right'
p2824
F0.0020597322348094747
sS'url'
p2825
F0.0020597322348094747
sS'biaoche'
p2826
F0.0010298661174047373
sS'removing'
p2827
F0.0010298661174047373
sS'there'
p2828
F0.0010298661174047373
sS'long'
p2829
F0.0010298661174047373
sS'why'
p2830
F0.0051493305870236872
sS'way'
p2831
F0.0010298661174047373
sS'xps'
p2832
F0.0020597322348094747
sS'files'
p2833
F0.0010298661174047373
sS'mailer'
p2834
F0.0010298661174047373
sS'form'
p2835
F0.0020597322348094747
sS'registered'
p2836
F0.0010298661174047373
sS'but'
p2837
F0.0041194644696189494
sS'hi'
p2838
F0.003089598352214212
sS'squeeze'
p2839
F0.0010298661174047373
sS'with'
p2840
F0.01132852729145211
sS'count'
p2841
F0.0020597322348094747
sS'up'
p2842
F0.0010298661174047373
sS'us'
p2843
F0.0010298661174047373
sS'mobile'
p2844
F0.0010298661174047373
sS'called'
p2845
F0.0020597322348094747
sS'connect'
p2846
F0.0010298661174047373
sS'engine'
p2847
F0.0010298661174047373
sS'ac'
p2848
F0.0010298661174047373
sS'videos'
p2849
F0.0010298661174047373
sS'doesn'
p2850
F0.0020597322348094747
sS'an'
p2851
F0.0020597322348094747
sS'cbr'
p2852
F0.0010298661174047373
sS'at'
p2853
F0.0051493305870236872
sS'file'
p2854
F0.0020597322348094747
sS'want'
p2855
F0.0061791967044284241
sS'no'
p2856
F0.0041194644696189494
sS'951'
p2857
F0.0020597322348094747
sS'44'
p2858
F0.0061791967044284241
sS'invalid'
p2859
F0.0010298661174047373
sS'application'
p2860
F0.0010298661174047373
sS'codec'
p2861
F0.0010298661174047373
sS'nat'
p2862
F0.0010298661174047373
sS'jenkins'
p2863
F0.0010298661174047373
sS'you'
p2864
F0.0020597322348094747
sS'naive'
p2865
F0.0010298661174047373
sS'node'
p2866
F0.0010298661174047373
sS'users'
p2867
F0.0010298661174047373
sS'calculating'
p2868
F0.0010298661174047373
sS'symbol'
p2869
F0.0020597322348094747
sS'qtablewidget'
p2870
F0.0020597322348094747
sS'asterisk'
p2871
F0.0010298661174047373
sS'enviroments'
p2872
F0.0010298661174047373
sS"let's"
p2873
F0.0010298661174047373
sS'livestreamed'
p2874
F0.0010298661174047373
sS'suited'
p2875
F0.0020597322348094747
sS'container'
p2876
F0.0010298661174047373
sS'ago'
p2877
F0.0010298661174047373
sS'e'
F0.0041194644696189494
sS'faster'
p2878
F0.0010298661174047373
sS'samsung'
p2879
F0.0020597322348094747
sS'age'
p2880
F0.0010298661174047373
sS'required'
p2881
F0.0010298661174047373
sS'time'
p2882
F0.0020597322348094747
sS'scroll'
p2883
F0.0010298661174047373
sS'hiit'
p2884
F0.0010298661174047373
sssS'spam'
p2885
(dp2886
S'body'
p2887
(dp2888
S'sleep'
p2889
F0.0001114951499609767
sS'hate'
p2890
F0.0001114951499609767
sS'btec'
p2891
F0.00022299029992195341
sS'relationships'
p2892
F0.0001114951499609767
sS'increase'
p2893
F0.0003344854498829301
sS'patches'
p2894
F0.00066897089976586019
sS'under'
p2895
F0.0010034563496487902
sS'every'
p2896
F0.00066897089976586019
sS'jack'
p2897
F0.00044598059984390681
sS"we'll"
p2898
F0.0003344854498829301
sS'companies'
p2899
F0.00022299029992195341
sS'heading'
p2900
F0.00022299029992195341
sS'clothes'
p2901
F0.00022299029992195341
sS'enjoy'
p2902
F0.0001114951499609767
sS'force'
p2903
F0.0042368156985171145
sS'likely'
p2904
F0.0003344854498829301
sS'liberty'
p2905
F0.00022299029992195341
sS'new'
p2906
F0.00022299029992195341
sS'ever'
p2907
F0.0003344854498829301
sS'disney'
p2908
F0.00022299029992195341
sS'told'
p2909
F0.0001114951499609767
sS'zach'
p2910
F0.00022299029992195341
sS'never'
p2911
F0.0001114951499609767
sS'affiliates'
p2912
F0.0001114951499609767
sS'protection'
p2913
F0.00022299029992195341
sS"aren't"
p2914
F0.00055747574980488353
sS'dry'
p2915
F0.0003344854498829301
sS'substance'
p2916
F0.00066897089976586019
sS'economics'
p2917
F0.0001114951499609767
sS'ethanproperty'
p2918
F0.00066897089976586019
sS"i'd"
p2919
F0.00022299029992195341
sS'complicated'
p2920
F0.0001114951499609767
sS"i'm"
p2921
F0.00089196119968781363
sS'adolescents'
p2922
F0.00022299029992195341
sS'feelings'
p2923
F0.0003344854498829301
sS'bro'
p2924
F0.00022299029992195341
sS'visible'
p2925
F0.0001114951499609767
sS'would'
p2926
F0.00078046604972683686
sS'negative'
p2927
F0.00055747574980488353
sS'music'
p2928
F0.00022299029992195341
sS'passport'
p2929
F0.00022299029992195341
sS'type'
p2930
F0.0003344854498829301
sS'tell'
p2931
F0.0003344854498829301
sS'holy'
p2932
F0.0001114951499609767
sS'expose'
p2933
F0.00022299029992195341
sS'hurt'
p2934
F0.00022299029992195341
sS'warm'
p2935
F0.0003344854498829301
sS'91'
p2936
F0.00022299029992195341
sS'vpn'
p2937
F0.00089196119968781363
sS'outdated'
p2938
F0.0003344854498829301
sS'circumstances'
p2939
F0.00022299029992195341
sS'me'
p2940
F0.0022299029992195341
sS'join'
p2941
F0.0001114951499609767
sS'room'
p2942
F0.00044598059984390681
sS'mm'
p2943
F0.00022299029992195341
sS'work'
p2944
F0.00055747574980488353
sS'refusing'
p2945
F0.0001114951499609767
sS'movies'
p2946
F0.00022299029992195341
sS'root'
p2947
F0.00044598059984390681
sS'example'
p2948
F0.0001114951499609767
sS'give'
p2949
F0.0012264466495707437
sS'nozzle'
p2950
F0.00022299029992195341
sS'in'
p2951
F0.010369048946370833
sS'india'
p2952
F0.00055747574980488353
sS'foods'
p2953
F0.0003344854498829301
sS'reviewing'
p2954
F0.0003344854498829301
sS'want'
p2955
F0.00055747574980488353
sS'keep'
p2956
F0.00066897089976586019
sS'aging'
p2957
F0.0013379417995317204
sS'end'
p2958
F0.00055747574980488353
sS'drying'
p2959
F0.0003344854498829301
sS'damage'
p2960
F0.00055747574980488353
sS'how'
p2961
F0.0014494369494926971
sS'hot'
p2962
F0.0003344854498829301
sS'disappoint'
p2963
F0.0001114951499609767
sS'bestvpnanalysis'
p2964
F0.00044598059984390681
sS'charging'
p2965
F0.00022299029992195341
sS'description'
p2966
F0.00022299029992195341
sS'mess'
p2967
F0.00022299029992195341
sS'arthritis'
p2968
F0.00022299029992195341
sS'law'
p2969
F0.00022299029992195341
sS'types'
p2970
F0.0003344854498829301
sS'third'
p2971
F0.00055747574980488353
sS'maintain'
p2972
F0.0003344854498829301
sS'ultimate'
p2973
F0.0011149514996097671
sS'enter'
p2974
F0.00044598059984390681
sS'order'
p2975
F0.0003344854498829301
sS'fillers'
p2976
F0.00022299029992195341
sS'over'
p2977
F0.0011149514996097671
sS'jpeg'
p2978
F0.00022299029992195341
sS'fortify'
p2979
F0.00022299029992195341
sS'fable'
p2980
F0.00022299029992195341
sS'caster'
p2981
F0.0001114951499609767
sS'before'
p2982
F0.00055747574980488353
sS'fit'
p2983
F0.0003344854498829301
sS'somewhere'
p2984
F0.0003344854498829301
sS'expectations'
p2985
F0.00022299029992195341
sS'writing'
p2986
F0.0001114951499609767
sS'destroyed'
p2987
F0.00044598059984390681
sS'complex'
p2988
F0.00066897089976586019
sS'weeks'
p2989
F0.0001114951499609767
sS'easier'
p2990
F0.00022299029992195341
sS'then'
p2991
F0.00089196119968781363
sS'them'
p2992
F0.00022299029992195341
sS'workout'
p2993
F0.00066897089976586019
sS'mxs'
p2994
F0.0044598059984390682
sS'break'
p2995
F0.0001114951499609767
sS'they'
p2996
F0.0012264466495707437
sS'one'
p2997
F0.0020069126992975804
sS'bank'
p2998
F0.00022299029992195341
sS"'ol"
p2999
F0.00022299029992195341
sS'l'
F0.0010034563496487902
sS'reasonable'
p3000
F0.00022299029992195341
sS'went'
p3001
F0.0001114951499609767
sS'mean'
p3002
F0.00022299029992195341
sS'skins'
p3003
F0.00022299029992195341
sS'strips'
p3004
F0.0003344854498829301
sS'aids'
p3005
F0.00022299029992195341
sS'slew'
p3006
F0.0001114951499609767
sS'by'
p3007
F0.0028988738989853941
sS'3months'
p3008
F0.00022299029992195341
sS'driving'
p3009
F0.00022299029992195341
sS'god'
p3010
F0.0010034563496487902
sS'mandy'
p3011
F0.00022299029992195341
sS'collaborated'
p3012
F0.00022299029992195341
sS'daniel'
p3013
F0.00044598059984390681
sS'love'
p3014
F0.00066897089976586019
sS'revenge'
p3015
F0.0001114951499609767
sS'free'
p3016
F0.00078046604972683686
sS'standard'
p3017
F0.00022299029992195341
sS'checked'
p3018
F0.00022299029992195341
sS'days'
p3019
F0.00055747574980488353
sS'creates'
p3020
F0.00044598059984390681
sS'mendacity'
p3021
F0.00022299029992195341
sS'intelligencerx'
p3022
F0.0024528932991414874
sS'already'
p3023
F0.00022299029992195341
sS'steroids'
p3024
F0.00022299029992195341
sS'veggie'
p3025
F0.00022299029992195341
sS'fantasy'
p3026
F0.0001114951499609767
sS'grady'
p3027
F0.00022299029992195341
sS'another'
p3028
F0.00044598059984390681
sS'needed'
p3029
F0.0003344854498829301
sS'too'
p3030
F0.00022299029992195341
sS'happily'
p3031
F0.0001114951499609767
sS'tool'
p3032
F0.00044598059984390681
sS'frowned'
p3033
F0.0001114951499609767
sS'inarticulate'
p3034
F0.00022299029992195341
sS'symptom'
p3035
F0.00022299029992195341
sS'mercy'
p3036
F0.00022299029992195341
sS'ahmed'
p3037
F0.00022299029992195341
sS'second'
p3038
F0.00066897089976586019
sS'seated'
p3039
F0.00022299029992195341
sS'project'
p3040
F0.00022299029992195341
sS'merci'
p3041
F0.00044598059984390681
sS'classes'
p3042
F0.0003344854498829301
sS'acquisition'
p3043
F0.00022299029992195341
sS'mind'
p3044
F0.00022299029992195341
sS'raw'
p3045
F0.0017839223993756273
sS'seem'
p3046
F0.0001114951499609767
sS'configure'
p3047
F0.00022299029992195341
sS'genuine'
p3048
F0.00044598059984390681
sS'latter'
p3049
F0.00022299029992195341
sS'fitting'
p3050
F0.0001114951499609767
sS'tigerhawk'
p3051
F0.00044598059984390681
sS'forces'
p3052
F0.0001114951499609767
sS'circles'
p3053
F0.0003344854498829301
sS'shall'
p3054
F0.00022299029992195341
sS'counteracts'
p3055
F0.00022299029992195341
sS'optimized'
p3056
F0.0003344854498829301
sS'regular'
p3057
F0.00089196119968781363
sS'germany'
p3058
F0.00022299029992195341
sS'exercises'
p3059
F0.00022299029992195341
sS'don'
p3060
F0.0001114951499609767
sS'flow'
p3061
F0.0003344854498829301
sS'spend'
p3062
F0.00022299029992195341
sS'came'
p3063
F0.00022299029992195341
sS'incorporate'
p3064
F0.00022299029992195341
sS'contacted'
p3065
F0.0001114951499609767
sS'jurisdiction'
p3066
F0.0003344854498829301
sS'stepping'
p3067
F0.0001114951499609767
sS'lethal'
p3068
F0.0001114951499609767
sS'd7'
p3069
F0.00022299029992195341
sS'touches'
p3070
F0.0001114951499609767
sS'situations'
p3071
F0.00022299029992195341
sS'acne'
p3072
F0.0010034563496487902
sS'rich'
p3073
F0.00022299029992195341
sS'integrate'
p3074
F0.0003344854498829301
sS'do'
p3075
F0.003679339948712231
sS'professionals'
p3076
F0.00022299029992195341
sS'wag2005'
p3077
F0.00022299029992195341
sS'dr'
p3078
F0.00022299029992195341
sS'14'
p3079
F0.0001114951499609767
sS'earn'
p3080
F0.0003344854498829301
sS'boggling'
p3081
F0.00022299029992195341
sS'illegitimate'
p3082
F0.0001114951499609767
sS'twice'
p3083
F0.0001114951499609767
sS'ears'
p3084
F0.00022299029992195341
sS'reference'
p3085
F0.00022299029992195341
sS'generally'
p3086
F0.0001114951499609767
sS'testing'
p3087
F0.0021184078492585572
sS'decided'
p3088
F0.00089196119968781363
sS'result'
p3089
F0.00044598059984390681
sS'best'
p3090
F0.0017839223993756273
sS'techniques'
p3091
F0.00022299029992195341
sS'said'
p3092
F0.00044598059984390681
sS'away'
p3093
F0.00022299029992195341
sS'prohealthguides'
p3094
F0.00066897089976586019
sS'irl'
p3095
F0.00022299029992195341
sS'thankx'
p3096
F0.00022299029992195341
sS'prada'
p3097
F0.00022299029992195341
sS'mum'
p3098
F0.00066897089976586019
sS'leakninja'
p3099
F0.00022299029992195341
sS'approach'
p3100
F0.0001114951499609767
sS'we'
p3101
F0.0025643884491024639
sS'rolled'
p3102
F0.00022299029992195341
sS'were'
p3103
F0.0001114951499609767
sS'however'
p3104
F0.00066897089976586019
sS'here'
p3105
F0.00066897089976586019
sS'dedication'
p3106
F0.00022299029992195341
sS'news'
p3107
F0.0001114951499609767
sS'picking'
p3108
F0.00022299029992195341
sS'roller'
p3109
F0.0003344854498829301
sS'improve'
p3110
F0.00044598059984390681
sS'suggested'
p3111
F0.0001114951499609767
sS'received'
p3112
F0.0001114951499609767
sS'country'
p3113
F0.00022299029992195341
sS'uni'
p3114
F0.0001114951499609767
sS'com'
p3115
F0.015609320994536737
sS'pregnancy'
p3116
F0.0003344854498829301
sS'trust'
p3117
F0.00044598059984390681
sS'panel'
p3118
F0.00022299029992195341
sS'three'
p3119
F0.00055747574980488353
sS'been'
p3120
F0.00055747574980488353
sS'extraction'
p3121
F0.00022299029992195341
sS'much'
p3122
F0.00044598059984390681
sS'website'
p3123
F0.0010034563496487902
sS'obtained'
p3124
F0.00022299029992195341
sS'life'
p3125
F0.0001114951499609767
sS'deeper'
p3126
F0.00022299029992195341
sS'concerning'
p3127
F0.0003344854498829301
sS'brightening'
p3128
F0.0003344854498829301
sS'worked'
p3129
F0.00022299029992195341
sS'supplementoffers'
p3130
F0.00044598059984390681
sS'cunt'
p3131
F0.00022299029992195341
sS'has'
p3132
F0.0016724272494146504
sS'extruded'
p3133
F0.00022299029992195341
sS'aim'
p3134
F0.0003344854498829301
sS'gnc'
p3135
F0.00022299029992195341
sS'aid'
p3136
F0.00022299029992195341
sS'072'
p3137
F0.0001114951499609767
sS'ip'
p3138
F0.00022299029992195341
sS'is'
p3139
F0.01282194224551232
sS'it'
p3140
F0.010257553796409856
sS'wag776'
p3141
F0.00022299029992195341
sS'tissue'
p3142
F0.00022299029992195341
sS'ramifications'
p3143
F0.0001114951499609767
sS'levied'
p3144
F0.0003344854498829301
sS'id'
p3145
F0.00022299029992195341
sS'if'
p3146
F0.0028988738989853941
sS'dhl'
p3147
F0.00022299029992195341
sS'nike'
p3148
F0.00022299029992195341
sS'suggest'
p3149
F0.00055747574980488353
sS'make'
p3150
F0.00055747574980488353
sS'adjectives'
p3151
F0.00022299029992195341
sS'linked'
p3152
F0.0003344854498829301
sS'craigslist'
p3153
F0.00022299029992195341
sS'supplements'
p3154
F0.00078046604972683686
sS'big'
p3155
F0.00044598059984390681
sS'harming'
p3156
F0.00022299029992195341
sS'nid'
p3157
F0.00022299029992195341
sS'hand'
p3158
F0.00089196119968781363
sS'garlic'
p3159
F0.00022299029992195341
sS'tuna'
p3160
F0.00022299029992195341
sS'kept'
p3161
F0.0001114951499609767
sS'changes'
p3162
F0.0003344854498829301
sS'failing'
p3163
F0.0001114951499609767
sS'contact'
p3164
F0.00066897089976586019
sS'the'
p3165
F0.022187534842234364
sS'just'
p3166
F0.00089196119968781363
sS'sporting'
p3167
F0.00022299029992195341
sS'torrented'
p3168
F0.00044598059984390681
sS'thanks'
p3169
F0.0001114951499609767
sS'human'
p3170
F0.00055747574980488353
sS'yes'
p3171
F0.00022299029992195341
sS'yet'
p3172
F0.00022299029992195341
sS'succeeding'
p3173
F0.00022299029992195341
sS'adding'
p3174
F0.00022299029992195341
sS'utimate'
p3175
F0.00022299029992195341
sS'character'
p3176
F0.00022299029992195341
sS"'chav"
p3177
F0.00022299029992195341
sS'easy'
p3178
F0.00055747574980488353
sS'save'
p3179
F0.00044598059984390681
sS'possible'
p3180
F0.0003344854498829301
sS'unique'
p3181
F0.0003344854498829301
sS'desire'
p3182
F0.0003344854498829301
sS'bobby'
p3183
F0.00022299029992195341
sS'steps'
p3184
F0.00022299029992195341
sS'night'
p3185
F0.0001114951499609767
sS'beneficial'
p3186
F0.00022299029992195341
sS'right'
p3187
F0.0003344854498829301
sS'old'
p3188
F0.0003344854498829301
sS'deal'
p3189
F0.00044598059984390681
sS'people'
p3190
F0.00089196119968781363
sS'donald'
p3191
F0.00022299029992195341
sS'for'
p3192
F0.0063552235477756722
sS'opposite'
p3193
F0.0003344854498829301
sS'arguing'
p3194
F0.00022299029992195341
sS'translated'
p3195
F0.00022299029992195341
sS'elmone'
p3196
F0.0003344854498829301
sS'post'
p3197
F0.00022299029992195341
sS'marital'
p3198
F0.0001114951499609767
sS'herpes'
p3199
F0.0003344854498829301
sS'o'
F0.0001114951499609767
sS'plus'
p3200
F0.00044598059984390681
sS'automatically'
p3201
F0.0003344854498829301
sS'whats'
p3202
F0.0001114951499609767
sS"'ear"
p3203
F0.00022299029992195341
sS'www'
p3204
F0.01048054409633181
sS'arms'
p3205
F0.00022299029992195341
sS'down'
p3206
F0.0013379417995317204
sS'fumes'
p3207
F0.00022299029992195341
sS'speediest'
p3208
F0.00044598059984390681
sS'bats'
p3209
F0.00022299029992195341
sS'reducing'
p3210
F0.0001114951499609767
sS'proventuresindia'
p3211
F0.0003344854498829301
sS'class'
p3212
F0.00022299029992195341
sS'stuck'
p3213
F0.0003344854498829301
sS'accordingly'
p3214
F0.00022299029992195341
sS'influencing'
p3215
F0.00022299029992195341
sS'way'
p3216
F0.0012264466495707437
sS'jane'
p3217
F0.00022299029992195341
sS'call'
p3218
F0.0003344854498829301
sS'was'
p3219
F0.0025643884491024639
sS'form'
p3220
F0.0003344854498829301
sS'offer'
p3221
F0.00022299029992195341
sS'becoming'
p3222
F0.00044598059984390681
sS'vitality'
p3223
F0.00022299029992195341
sS'hear'
p3224
F0.0001114951499609767
sS'newhealthsupplement'
p3225
F0.00066897089976586019
sS'universityq'
p3226
F0.00022299029992195341
sS'continuance'
p3227
F0.00022299029992195341
sS'inside'
p3228
F0.00055747574980488353
sS'devices'
p3229
F0.0015609320994536737
sS'sticks'
p3230
F0.00022299029992195341
sS'nandos'
p3231
F0.00022299029992195341
sS'check'
p3232
F0.00044598059984390681
sS'shit'
p3233
F0.00022299029992195341
sS'no'
p3234
F0.0016724272494146504
sS'when'
p3235
F0.0027873787490244172
sS'interested'
p3236
F0.00022299029992195341
sS'holding'
p3237
F0.00022299029992195341
sS'intend'
p3238
F0.0003344854498829301
sS'palms'
p3239
F0.00022299029992195341
sS'welcome'
p3240
F0.00022299029992195341
sS'update'
p3241
F0.0003344854498829301
sS'diet'
p3242
F0.00066897089976586019
sS'blokes'
p3243
F0.0001114951499609767
sS'variable'
p3244
F0.00022299029992195341
sS'detox'
p3245
F0.0020069126992975804
sS'weekend'
p3246
F0.00022299029992195341
sS'younger'
p3247
F0.0010034563496487902
sS'faster'
p3248
F0.0001114951499609767
sS'vigorously'
p3249
F0.0003344854498829301
sS'yacht'
p3250
F0.0003344854498829301
sS'together'
p3251
F0.0001114951499609767
sS'premiums'
p3252
F0.0003344854498829301
sS'time'
p3253
F0.0003344854498829301
sS'push'
p3254
F0.00022299029992195341
sS'particular'
p3255
F0.00022299029992195341
sS'supplement'
p3256
F0.00089196119968781363
sS'skin'
p3257
F0.0033448544988293008
sS'battle'
p3258
F0.0001114951499609767
sS'chair'
p3259
F0.00022299029992195341
sS'layers'
p3260
F0.0001114951499609767
sS'suicide'
p3261
F0.0001114951499609767
sS'everything'
p3262
F0.0001114951499609767
sS'technique'
p3263
F0.0001114951499609767
sS'0'
F0.00022299029992195341
sS'charge'
p3264
F0.00044598059984390681
sS'must'
p3265
F0.00044598059984390681
sS'seemingly'
p3266
F0.0001114951499609767
sS'wellnesssupplement'
p3267
F0.0003344854498829301
sS'word'
p3268
F0.0001114951499609767
sS'trouble'
p3269
F0.0001114951499609767
sS'little'
p3270
F0.0003344854498829301
sS'cool'
p3271
F0.00022299029992195341
sS'level'
p3272
F0.00044598059984390681
sS'did'
p3273
F0.00044598059984390681
sS'posts'
p3274
F0.00022299029992195341
sS'p'
F0.042145166685249189
sS'gut'
p3275
F0.00022299029992195341
sS'quick'
p3276
F0.00022299029992195341
sS'guy'
p3277
F0.0003344854498829301
sS'prevent'
p3278
F0.0001114951499609767
sS'pmp'
p3279
F0.00089196119968781363
sS'dealing'
p3280
F0.00022299029992195341
sS'obsolete'
p3281
F0.0003344854498829301
sS'healthbuzzer'
p3282
F0.00044598059984390681
sS'eating'
p3283
F0.00044598059984390681
sS'pmi'
p3284
F0.00022299029992195341
sS'curse'
p3285
F0.00022299029992195341
sS'appear'
p3286
F0.0003344854498829301
sS'norris'
p3287
F0.00022299029992195341
sS'filler'
p3288
F0.00022299029992195341
sS'suspect'
p3289
F0.0001114951499609767
sS'goes'
p3290
F0.0001114951499609767
sS'explosion'
p3291
F0.0011149514996097671
sS'understanding'
p3292
F0.00022299029992195341
sS'water'
p3293
F0.00089196119968781363
sS'baseball'
p3294
F0.00022299029992195341
sS'groups'
p3295
F0.00044598059984390681
sS'address'
p3296
F0.00066897089976586019
sS'along'
p3297
F0.00022299029992195341
sS'change'
p3298
F0.00078046604972683686
sS'wait'
p3299
F0.00044598059984390681
sS'canadian'
p3300
F0.00044598059984390681
sS'healthy'
p3301
F0.0001114951499609767
sS'my'
p3302
F0.0047942914483219976
sS'jungles'
p3303
F0.00022299029992195341
sS'trial'
p3304
F0.00066897089976586019
sS'usually'
p3305
F0.0001114951499609767
sS'studies'
p3306
F0.0003344854498829301
sS'motherfucking'
p3307
F0.00022299029992195341
sS'useful'
p3308
F0.0003344854498829301
sS'extra'
p3309
F0.00022299029992195341
sS'fake'
p3310
F0.0010034563496487902
sS'rarely'
p3311
F0.0001114951499609767
sS'everybody'
p3312
F0.00022299029992195341
sS'jackedmuscleextremeadvice'
p3313
F0.00044598059984390681
sS'working'
p3314
F0.00022299029992195341
sS'positive'
p3315
F0.00022299029992195341
sS'visit'
p3316
F0.0011149514996097671
sS'sports'
p3317
F0.0001114951499609767
sS'wrongs'
p3318
F0.0001114951499609767
sS'opposed'
p3319
F0.0001114951499609767
sS'https'
p3320
F0.0001114951499609767
sS'today'
p3321
F0.0011149514996097671
sS'vous'
p3322
F0.00044598059984390681
sS'afford'
p3323
F0.0001114951499609767
sS'effort'
p3324
F0.00022299029992195341
sS'organizations'
p3325
F0.0001114951499609767
sS'car'
p3326
F0.0003344854498829301
sS'soul'
p3327
F0.00022299029992195341
sS'reviews'
p3328
F0.0031218641989073474
sS'printing'
p3329
F0.00022299029992195341
sS'can'
p3330
F0.0055747574980488344
sS'cam'
p3331
F0.00022299029992195341
sS'trump'
p3332
F0.00022299029992195341
sS'hftttttttttttttttttttttttttttttttttttttttttttttttttttttgggggggggggggggggggg'
p3333
F0.0003344854498829301
sS'fuck'
p3334
F0.00055747574980488353
sS'dropped'
p3335
F0.0001114951499609767
sS'serum'
p3336
F0.00044598059984390681
sS'rays'
p3337
F0.00022299029992195341
sS'secured'
p3338
F0.00044598059984390681
sS'1'
F0.0013379417995317204
sS'crumbling'
p3339
F0.0001114951499609767
sS'pure'
p3340
F0.0001114951499609767
sS'ensure'
p3341
F0.00022299029992195341
sS'product'
p3342
F0.0022299029992195341
sS'may'
p3343
F0.0024528932991414874
sS'hahahahhahahhahahhaaaaaaaaaaaa'
p3344
F0.0001114951499609767
sS'improving'
p3345
F0.0001114951499609767
sS'such'
p3346
F0.00055747574980488353
sS'data'
p3347
F0.00066897089976586019
sS'grow'
p3348
F0.00022299029992195341
sS'lifting'
p3349
F0.0001114951499609767
sS'man'
p3350
F0.0010034563496487902
sS'stress'
p3351
F0.0001114951499609767
sS'natural'
p3352
F0.00089196119968781363
sS'remember'
p3353
F0.00022299029992195341
sS'maybe'
p3354
F0.0001114951499609767
sS'q'
F0.00022299029992195341
sS'so'
p3355
F0.0027873787490244172
sS'talk'
p3356
F0.0001114951499609767
sS'typical'
p3357
F0.00022299029992195341
sS'lse'
p3358
F0.0001114951499609767
sS'noteworthy'
p3359
F0.00066897089976586019
sS'displayed'
p3360
F0.00022299029992195341
sS'brain'
p3361
F0.00078046604972683686
sS'still'
p3362
F0.00078046604972683686
sS'group'
p3363
F0.00066897089976586019
sS'methodology'
p3364
F0.00022299029992195341
sS'bonyes'
p3365
F0.00022299029992195341
sS'mail'
p3366
F0.0001114951499609767
sS'main'
p3367
F0.00044598059984390681
sS'thehealthvictory'
p3368
F0.0003344854498829301
sS'non'
p3369
F0.0003344854498829301
sS'blockquote'
p3370
F0.00044598059984390681
sS'sorter'
p3371
F0.00022299029992195341
sS'underneath'
p3372
F0.0001114951499609767
sS'not'
p3373
F0.0027873787490244172
sS'now'
p3374
F0.00078046604972683686
sS'hall'
p3375
F0.00022299029992195341
sS'execute'
p3376
F0.0001114951499609767
sS'name'
p3377
F0.0010034563496487902
sS'didn'
p3378
F0.0001114951499609767
sS'triceps'
p3379
F0.0011149514996097671
sS'em'
p3380
F0.00044598059984390681
sS'domain'
p3381
F0.0003344854498829301
sS'square'
p3382
F0.00022299029992195341
sS"chav'"
p3383
F0.00022299029992195341
sS'ex'
p3384
F0.00022299029992195341
sS'year'
p3385
F0.0001114951499609767
sS'happen'
p3386
F0.0003344854498829301
sS'intended'
p3387
F0.00022299029992195341
sS'living'
p3388
F0.0001114951499609767
sS'medications'
p3389
F0.00022299029992195341
sS'furthermore'
p3390
F0.00044598059984390681
sS'looking'
p3391
F0.00022299029992195341
sS'internet'
p3392
F0.0003344854498829301
sS'inevitably'
p3393
F0.0003344854498829301
sS'after'
p3394
F0.00044598059984390681
sS'monster'
p3395
F0.00022299029992195341
sS'hull'
p3396
F0.0003344854498829301
sS'unwanted'
p3397
F0.0003344854498829301
sS'besides'
p3398
F0.00022299029992195341
sS'org'
p3399
F0.00055747574980488353
sS'care'
p3400
F0.00055747574980488353
sS'advance'
p3401
F0.00022299029992195341
sS'training'
p3402
F0.0022299029992195341
sS'nofollow'
p3403
F0.010703534396253763
sS'thing'
p3404
F0.00055747574980488353
sS'place'
p3405
F0.0001114951499609767
sS'router'
p3406
F0.00022299029992195341
sS'think'
p3407
F0.00044598059984390681
sS'first'
p3408
F0.00022299029992195341
sS'striking'
p3409
F0.0003344854498829301
sS'yourself'
p3410
F0.00066897089976586019
sS'fast'
p3411
F0.0001114951499609767
sS'directly'
p3412
F0.0003344854498829301
sS'pokemon'
p3413
F0.00022299029992195341
sS'xt'
p3414
F0.00044598059984390681
sS'city'
p3415
F0.00022299029992195341
sS'given'
p3416
F0.00022299029992195341
sS'sheet'
p3417
F0.0003344854498829301
sS'fajrtechnologies'
p3418
F0.00066897089976586019
sS'caught'
p3419
F0.0001114951499609767
sS'remotely'
p3420
F0.00078046604972683686
sS'2'
F0.00044598059984390681
sS'moisture'
p3421
F0.0003344854498829301
sS'drugstore'
p3422
F0.0003344854498829301
sS'friend'
p3423
F0.0001114951499609767
sS'gives'
p3424
F0.0003344854498829301
sS'1999'
p3425
F0.00044598059984390681
sS'eyes'
p3426
F0.00022299029992195341
sS'that'
p3427
F0.0097000780466049725
sS'released'
p3428
F0.00022299029992195341
sS'specialists'
p3429
F0.00022299029992195341
sS'than'
p3430
F0.00055747574980488353
sS'boyfriend'
p3431
F0.00055747574980488353
sS'10'
p3432
F0.00078046604972683686
sS'15'
p3433
F0.0001114951499609767
sS'effective'
p3434
F0.0003344854498829301
sS'future'
p3435
F0.00022299029992195341
sS'627212264'
p3436
F0.00044598059984390681
sS'gigantic'
p3437
F0.00022299029992195341
sS'proofread'
p3438
F0.0001114951499609767
sS'and'
p3439
F0.017058757944029435
sS'topics'
p3440
F0.00044598059984390681
sS'turned'
p3441
F0.00022299029992195341
sS'dash'
p3442
F0.00022299029992195341
sS'mates'
p3443
F0.00022299029992195341
sS'tanning'
p3444
F0.00066897089976586019
sS'any'
p3445
F0.00089196119968781363
sS'sat'
p3446
F0.0001114951499609767
sS'ideal'
p3447
F0.00022299029992195341
sS'take'
p3448
F0.00078046604972683686
sS'online'
p3449
F0.0022299029992195341
sS'channel'
p3450
F0.00022299029992195341
sS'begin'
p3451
F0.0001114951499609767
sS'sure'
p3452
F0.0001114951499609767
sS'pain'
p3453
F0.0001114951499609767
sS'normal'
p3454
F0.00044598059984390681
sS'track'
p3455
F0.00066897089976586019
sS'visitors'
p3456
F0.0001114951499609767
sS'importantly'
p3457
F0.00022299029992195341
sS'forever'
p3458
F0.0001114951499609767
sS'especially'
p3459
F0.0003344854498829301
sS'surprising'
p3460
F0.00022299029992195341
sS'later'
p3461
F0.0001114951499609767
sS'drive'
p3462
F0.00022299029992195341
sS'peptides'
p3463
F0.0003344854498829301
sS'prepare'
p3464
F0.00022299029992195341
sS'squint'
p3465
F0.00022299029992195341
sS'professional'
p3466
F0.0001114951499609767
sS'proventures'
p3467
F0.00022299029992195341
sS'precise'
p3468
F0.00022299029992195341
sS'shot'
p3469
F0.00022299029992195341
sS'compadres'
p3470
F0.00022299029992195341
sS'certification'
p3471
F0.00055747574980488353
sS'contemporary'
p3472
F0.00022299029992195341
sS'dick'
p3473
F0.00066897089976586019
sS'behind'
p3474
F0.0001114951499609767
sS'only'
p3475
F0.00044598059984390681
sS'going'
p3476
F0.00022299029992195341
sS'black'
p3477
F0.0010034563496487902
sS'carolina'
p3478
F0.00022299029992195341
sS'get'
p3479
F0.0020069126992975804
sS'cannon'
p3480
F0.00022299029992195341
sS'truly'
p3481
F0.0003344854498829301
sS'cannot'
p3482
F0.0003344854498829301
sS'maleenhancementshop'
p3483
F0.0003344854498829301
sS'nearly'
p3484
F0.00022299029992195341
sS'reveal'
p3485
F0.0001114951499609767
sS'regarding'
p3486
F0.0003344854498829301
sS'resource'
p3487
F0.0003344854498829301
sS'worried'
p3488
F0.0001114951499609767
sS'stupid'
p3489
F0.00022299029992195341
sS'london'
p3490
F0.0001114951499609767
sS'where'
p3491
F0.00055747574980488353
sS'ignored'
p3492
F0.0001114951499609767
sS'fucktard'
p3493
F0.00022299029992195341
sS'seat'
p3494
F0.0001114951499609767
sS'sport'
p3495
F0.00022299029992195341
sS'fails'
p3496
F0.00022299029992195341
sS'registering'
p3497
F0.0003344854498829301
sS'ways'
p3498
F0.00022299029992195341
sS'review'
p3499
F0.00022299029992195341
sS'goers'
p3500
F0.00044598059984390681
sS'3'
F0.0011149514996097671
sS'between'
p3501
F0.0001114951499609767
sS'reading'
p3502
F0.00044598059984390681
sS'across'
p3503
F0.0001114951499609767
sS'conferencing'
p3504
F0.00022299029992195341
sS'concentrate'
p3505
F0.0001114951499609767
sS'je'
p3506
F0.00044598059984390681
sS'tub'
p3507
F0.0003344854498829301
sS'come'
p3508
F0.0001114951499609767
sS'tuf'
p3509
F0.00022299029992195341
sS'sea59'
p3510
F0.0014494369494926971
sS'many'
p3511
F0.00089196119968781363
sS's'
F0.00044598059984390681
sS'comes'
p3512
F0.00055747574980488353
sS'key'
p3513
F0.0003344854498829301
sS'28'
p3514
F0.0003344854498829301
sS'anti'
p3515
F0.0015609320994536737
sS"couldn't"
p3516
F0.0001114951499609767
sS'better'
p3517
F0.0010034563496487902
sS'oliver'
p3518
F0.00044598059984390681
sS'wobble'
p3519
F0.00022299029992195341
sS'mark'
p3520
F0.00022299029992195341
sS'almighty'
p3521
F0.0001114951499609767
sS'likewise'
p3522
F0.00022299029992195341
sS'engine'
p3523
F0.00066897089976586019
sS'retardislad'
p3524
F0.00022299029992195341
sS'ahmedutimate'
p3525
F0.0001114951499609767
sS'those'
p3526
F0.00055747574980488353
sS'stacked'
p3527
F0.0001114951499609767
sS'these'
p3528
F0.0003344854498829301
sS'premature'
p3529
F0.00055747574980488353
sS'trick'
p3530
F0.00022299029992195341
sS'cast'
p3531
F0.0001114951499609767
sS'characteristics'
p3532
F0.00022299029992195341
sS'jjjhhhhhhhhhhhhhhhhhhhhhhhhhhhhhhhhhhhhhhhhhhhhhhhhhhhhhhh'
p3533
F0.00022299029992195341
sS'someone'
p3534
F0.0001114951499609767
sS'baths'
p3535
F0.0003344854498829301
sS'technology'
p3536
F0.00022299029992195341
sS'compatriots'
p3537
F0.0001114951499609767
sS'par'
p3538
F0.0001114951499609767
sS'pat'
p3539
F0.0003344854498829301
sS'amateurs'
p3540
F0.0001114951499609767
sS'html'
p3541
F0.00044598059984390681
sS'idetity'
p3542
F0.00022299029992195341
sS'nomatter'
p3543
F0.0001114951499609767
sS'week'
p3544
F0.00022299029992195341
sS'exhaust'
p3545
F0.00022299029992195341
sS'finish'
p3546
F0.0001114951499609767
sS'booths'
p3547
F0.0003344854498829301
sS'wecareskincare'
p3548
F0.00089196119968781363
sS'assist'
p3549
F0.00022299029992195341
sS'running'
p3550
F0.00022299029992195341
sS'statue'
p3551
F0.00022299029992195341
sS'booster'
p3552
F0.0001114951499609767
sS'tracking'
p3553
F0.00022299029992195341
sS'without'
p3554
F0.00022299029992195341
sS'solve'
p3555
F0.0001114951499609767
sS'glorious'
p3556
F0.00022299029992195341
sS'components'
p3557
F0.0010034563496487902
sS'amazed'
p3558
F0.0003344854498829301
sS'being'
p3559
F0.00022299029992195341
sS'money'
p3560
F0.0003344854498829301
sS'rest'
p3561
F0.0003344854498829301
sS'generator'
p3562
F0.0003344854498829301
sS'thinking'
p3563
F0.0001114951499609767
sS'4'
F0.00044598059984390681
sS'real'
p3564
F0.0001114951499609767
sS'around'
p3565
F0.00055747574980488353
sS'read'
p3566
F0.0011149514996097671
sS'early'
p3567
F0.00022299029992195341
sS'mom'
p3568
F0.0003344854498829301
sS'amp'
p3569
F0.00022299029992195341
sS'nissan'
p3570
F0.00022299029992195341
sS'server'
p3571
F0.00066897089976586019
sS'trycognimaxiq'
p3572
F0.00022299029992195341
sS't'
F0.0003344854498829301
sS'fulfil'
p3573
F0.00022299029992195341
sS'learning'
p3574
F0.0001114951499609767
sS'duration'
p3575
F0.00022299029992195341
sS'passions'
p3576
F0.0001114951499609767
sS"o'"
p3577
F0.00022299029992195341
sS'cleanser'
p3578
F0.0001114951499609767
sS'recorded'
p3579
F0.0003344854498829301
sS'provides'
p3580
F0.00044598059984390681
sS'felt'
p3581
F0.0001114951499609767
sS'power'
p3582
F0.00022299029992195341
sS'broken'
p3583
F0.0003344854498829301
sS'despicable'
p3584
F0.00022299029992195341
sS'on'
p3585
F0.0064667186977366486
sS'oh'
p3586
F0.00022299029992195341
sS'of'
p3587
F0.016724272494146503
sS'acp'
p3588
F0.00022299029992195341
sS'testimony'
p3589
F0.0001114951499609767
sS'or'
p3590
F0.0023413981491805106
sS'tescos'
p3591
F0.00022299029992195341
sS'ladies'
p3592
F0.00022299029992195341
sS'image'
p3593
F0.00089196119968781363
sS'essex'
p3594
F0.00022299029992195341
sS'snapchat'
p3595
F0.00022299029992195341
sS'inbox'
p3596
F0.0001114951499609767
sS'determine'
p3597
F0.00022299029992195341
sS'syringe'
p3598
F0.0001114951499609767
sS'your'
p3599
F0.0085851265469952063
sS'buds'
p3600
F0.00022299029992195341
sS'pharmaceutical'
p3601
F0.00022299029992195341
sS'her'
p3602
F0.00022299029992195341
sS'removing'
p3603
F0.0003344854498829301
sS'there'
p3604
F0.0026758835990634408
sS'start'
p3605
F0.00022299029992195341
sS'lot'
p3606
F0.00066897089976586019
sS'enough'
p3607
F0.00022299029992195341
sS'positioned'
p3608
F0.00022299029992195341
sS'curiously'
p3609
F0.0001114951499609767
sS'ended'
p3610
F0.0001114951499609767
sS'trying'
p3611
F0.00022299029992195341
sS'with'
p3612
F0.0069126992975805553
sS"they're"
p3613
F0.0001114951499609767
sS'regimen'
p3614
F0.00022299029992195341
sS'fraud'
p3615
F0.0001114951499609767
sS'romantic'
p3616
F0.0001114951499609767
sS"wasn't"
p3617
F0.0001114951499609767
sS'dispensing'
p3618
F0.00022299029992195341
sS'connect'
p3619
F0.00022299029992195341
sS'whizzsystems'
p3620
F0.00078046604972683686
sS'certain'
p3621
F0.00044598059984390681
sS'am'
p3622
F0.0012264466495707437
sS'general'
p3623
F0.00044598059984390681
sS'as'
p3624
F0.0047942914483219976
sS'au'
p3625
F0.00066897089976586019
sS'at'
p3626
F0.0022299029992195341
sS'file'
p3627
F0.00022299029992195341
sS'controlled'
p3628
F0.00078046604972683686
sS'spends'
p3629
F0.00022299029992195341
sS'supplements4us'
p3630
F0.00044598059984390681
sS'fill'
p3631
F0.00044598059984390681
sS'again'
p3632
F0.00066897089976586019
sS'elmon'
p3633
F0.0010034563496487902
sS'tight'
p3634
F0.0001114951499609767
sS'valid'
p3635
F0.0001114951499609767
sS'5'
F0.00022299029992195341
sS'someones'
p3636
F0.00022299029992195341
sS'you'
p3637
F0.013602408295239158
sS'separate'
p3638
F0.0001114951499609767
sS'm'
F0.0001114951499609767
sS'includes'
p3639
F0.0003344854498829301
sS'herbs'
p3640
F0.00066897089976586019
sS'important'
p3641
F0.00044598059984390681
sS'diablo'
p3642
F0.00022299029992195341
sS'recognise'
p3643
F0.00022299029992195341
sS'revolve'
p3644
F0.00022299029992195341
sS'building'
p3645
F0.00089196119968781363
sS'clinically'
p3646
F0.00022299029992195341
sS'curve'
p3647
F0.0001114951499609767
sS'mass'
p3648
F0.00022299029992195341
sS'144p'
p3649
F0.00022299029992195341
sS'all'
p3650
F0.0026758835990634408
sS'diss'
p3651
F0.00022299029992195341
sS'forget'
p3652
F0.00022299029992195341
sS'chinese'
p3653
F0.00022299029992195341
sS'ali'
p3654
F0.00022299029992195341
sS'follow'
p3655
F0.0001114951499609767
sS'revealed'
p3656
F0.0003344854498829301
sS'particles'
p3657
F0.00022299029992195341
sS'batches'
p3658
F0.00044598059984390681
sS'ekavat'
p3659
F0.0003344854498829301
sS'referring'
p3660
F0.0001114951499609767
sS'to'
p3661
F0.026981826290556361
sS'surya'
p3662
F0.00022299029992195341
sS'norm'
p3663
F0.00022299029992195341
sS'activities'
p3664
F0.00022299029992195341
sS'returned'
p3665
F0.0001114951499609767
sS'sitting'
p3666
F0.00022299029992195341
sS'very'
p3667
F0.0011149514996097671
sS'fat'
p3668
F0.00066897089976586019
sS'decide'
p3669
F0.00055747574980488353
sS'difference'
p3670
F0.0001114951499609767
sS'condition'
p3671
F0.00022299029992195341
sS'extrusion'
p3672
F0.00022299029992195341
sS'large'
p3673
F0.0003344854498829301
sS'invigorate'
p3674
F0.00022299029992195341
sS'small'
p3675
F0.00022299029992195341
sS'becker'
p3676
F0.00022299029992195341
sS'past'
p3677
F0.00022299029992195341
sS'zero'
p3678
F0.00066897089976586019
sS'design'
p3679
F0.0003344854498829301
sS'enhancement'
p3680
F0.00022299029992195341
sS'etoile'
p3681
F0.0010034563496487902
sS'investment'
p3682
F0.00022299029992195341
sS'will'
p3683
F0.0031218641989073474
sS'what'
p3684
F0.0015609320994536737
sS'hormonal'
p3685
F0.00022299029992195341
sS'sub'
p3686
F0.00022299029992195341
sS'gucci'
p3687
F0.00022299029992195341
sS'apologized'
p3688
F0.0001114951499609767
sS'fixings'
p3689
F0.00022299029992195341
sS'learned'
p3690
F0.0001114951499609767
sS'full'
p3691
F0.00044598059984390681
sS'healthybooklet'
p3692
F0.00022299029992195341
sS'loose'
p3693
F0.0001114951499609767
sS'answers'
p3694
F0.0003344854498829301
sS"creator's"
p3695
F0.0001114951499609767
sS'hours'
p3696
F0.0003344854498829301
sS'leeds'
p3697
F0.00022299029992195341
sS'excess'
p3698
F0.0003344854498829301
sS'strong'
p3699
F0.005463262348087858
sS'search'
p3700
F0.0010034563496487902
sS'ahead'
p3701
F0.0001114951499609767
sS'experience'
p3702
F0.00022299029992195341
sS'amount'
p3703
F0.00055747574980488353
sS'geniuxtrial'
p3704
F0.00022299029992195341
sS'cosmetic'
p3705
F0.00089196119968781363
sS'texts'
p3706
F0.0001114951499609767
sS'href'
p3707
F0.010703534396253763
sS'regimens'
p3708
F0.00022299029992195341
sS'fatburnxonline'
p3709
F0.00066897089976586019
sS'trained'
p3710
F0.00022299029992195341
sS'ringing'
p3711
F0.0001114951499609767
sS'attendance'
p3712
F0.0001114951499609767
sS'eye'
p3713
F0.00022299029992195341
sS'takes'
p3714
F0.0001114951499609767
sS'contains'
p3715
F0.00044598059984390681
sS'texting'
p3716
F0.0001114951499609767
sS'two'
p3717
F0.00066897089976586019
sS'wobbled'
p3718
F0.00022299029992195341
sS'6'
F0.00022299029992195341
sS'more'
p3719
F0.0045713011484000447
sS'diamond'
p3720
F0.0010034563496487902
sS'csgo'
p3721
F0.00022299029992195341
sS'tested'
p3722
F0.00022299029992195341
sS'broke'
p3723
F0.0001114951499609767
sS'20000'
p3724
F0.00022299029992195341
sS'town'
p3725
F0.00022299029992195341
sS'toxins'
p3726
F0.0001114951499609767
sS'science'
p3727
F0.0001114951499609767
sS'male'
p3728
F0.00044598059984390681
sS'741'
p3729
F0.00022299029992195341
sS'rejuvenated'
p3730
F0.0001114951499609767
sS'utilize'
p3731
F0.00022299029992195341
sS'occasionally'
p3732
F0.0001114951499609767
sS'fr'
p3733
F0.00044598059984390681
sS'tried'
p3734
F0.00022299029992195341
sS'different'
p3735
F0.0010034563496487902
sS'proclaimed'
p3736
F0.00022299029992195341
sS'a'
F0.038019846136693056
sS'overnight'
p3737
F0.00022299029992195341
sS'coal'
p3738
F0.00089196119968781363
sS'playing'
p3739
F0.00022299029992195341
sS'rounded'
p3740
F0.00022299029992195341
sS'help'
p3741
F0.0017839223993756273
sS"don't"
p3742
F0.0010034563496487902
sS'mission'
p3743
F0.0001114951499609767
sS'hyaluronic'
p3744
F0.0003344854498829301
sS'pokestops'
p3745
F0.00022299029992195341
sS'through'
p3746
F0.00089196119968781363
sS'hell'
p3747
F0.00022299029992195341
sS'its'
p3748
F0.0016724272494146504
sS'roots'
p3749
F0.00022299029992195341
sS'24'
p3750
F0.00022299029992195341
sS'style'
p3751
F0.00044598059984390681
sS'selenium'
p3752
F0.00066897089976586019
sS'29'
p3753
F0.00022299029992195341
sS'actually'
p3754
F0.00044598059984390681
sS'wipsen'
p3755
F0.0001114951499609767
sS'symptoms'
p3756
F0.00022299029992195341
sS'biggen'
p3757
F0.00022299029992195341
sS'good'
p3758
F0.0003344854498829301
sS'motivated'
p3759
F0.0001114951499609767
sS'food'
p3760
F0.00022299029992195341
sS'propose'
p3761
F0.00022299029992195341
sS'libido'
p3762
F0.0001114951499609767
sS'foot'
p3763
F0.0012264466495707437
sS'easily'
p3764
F0.00022299029992195341
sS'pregnant'
p3765
F0.0001114951499609767
sS'always'
p3766
F0.0001114951499609767
sS'found'
p3767
F0.00022299029992195341
sS"isn't"
p3768
F0.00078046604972683686
sS'micra'
p3769
F0.00022299029992195341
sS'heavy'
p3770
F0.0003344854498829301
sS'reactions'
p3771
F0.00044598059984390681
sS'weight'
p3772
F0.00044598059984390681
sS'energy'
p3773
F0.0001114951499609767
sS'hard'
p3774
F0.00044598059984390681
sS'reduce'
p3775
F0.0001114951499609767
sS'idea'
p3776
F0.0003344854498829301
sS'oil'
p3777
F0.0001114951499609767
sS'expect'
p3778
F0.0001114951499609767
sS'insurance'
p3779
F0.00066897089976586019
sS'really'
p3780
F0.00078046604972683686
sS'item'
p3781
F0.00055747574980488353
sS'since'
p3782
F0.0012264466495707437
sS'health'
p3783
F0.0001114951499609767
sS'7'
F0.00022299029992195341
sS'issue'
p3784
F0.00022299029992195341
sS'regenere'
p3785
F0.0010034563496487902
sS'dirt'
p3786
F0.0001114951499609767
sS'mikhail'
p3787
F0.00022299029992195341
sS'extraordinary'
p3788
F0.00022299029992195341
sS'reason'
p3789
F0.00022299029992195341
sS'giveaway'
p3790
F0.00022299029992195341
sS'put'
p3791
F0.0001114951499609767
sS'owners'
p3792
F0.0003344854498829301
sS'hyderabad'
p3793
F0.00066897089976586019
sS'feel'
p3794
F0.0001114951499609767
sS'belligerent'
p3795
F0.00022299029992195341
sS'number'
p3796
F0.00055747574980488353
sS'utilized'
p3797
F0.00044598059984390681
sS'done'
p3798
F0.00055747574980488353
sS'story'
p3799
F0.00022299029992195341
sS'utilization'
p3800
F0.00066897089976586019
sS'introduction'
p3801
F0.00022299029992195341
sS'grime'
p3802
F0.00022299029992195341
sS'revive'
p3803
F0.00066897089976586019
sS'least'
p3804
F0.0001114951499609767
sS'regulation'
p3805
F0.0001114951499609767
sS'hundred'
p3806
F0.00022299029992195341
sS'muscles'
p3807
F0.00066897089976586019
sS'relationship'
p3808
F0.0001114951499609767
sS'discover'
p3809
F0.0003344854498829301
sS'part'
p3810
F0.0013379417995317204
sS'jokerdino'
p3811
F0.0001114951499609767
sS'contrary'
p3812
F0.0001114951499609767
sS'toward'
p3813
F0.00022299029992195341
sS'contextualised'
p3814
F0.00022299029992195341
sS'well'
p3815
F0.0012264466495707437
sS'alongside'
p3816
F0.00022299029992195341
sS'showers'
p3817
F0.0003344854498829301
sS'organs'
p3818
F0.00044598059984390681
sS'orders'
p3819
F0.00022299029992195341
sS'nights'
p3820
F0.0001114951499609767
sS'dancing'
p3821
F0.0001114951499609767
sS'self'
p3822
F0.0001114951499609767
sS'also'
p3823
F0.0001114951499609767
sS'build'
p3824
F0.0010034563496487902
sS'towards'
p3825
F0.0001114951499609767
sS'eggs'
p3826
F0.00022299029992195341
sS'most'
p3827
F0.00044598059984390681
sS'plan'
p3828
F0.0001114951499609767
sS'significant'
p3829
F0.0003344854498829301
sS'services'
p3830
F0.0003344854498829301
sS'alpha'
p3831
F0.004125320548556138
sS'kindest'
p3832
F0.00022299029992195341
sS'windows'
p3833
F0.00089196119968781363
sS'clear'
p3834
F0.00022299029992195341
sS'sometimes'
p3835
F0.0001114951499609767
sS'dissolved'
p3836
F0.00044598059984390681
sS'clean'
p3837
F0.00022299029992195341
sS'blend'
p3838
F0.00022299029992195341
sS'joining'
p3839
F0.00022299029992195341
sS'find'
p3840
F0.00044598059984390681
sS'idiots'
p3841
F0.0001114951499609767
sS'generators'
p3842
F0.0001114951499609767
sS'subsection'
p3843
F0.00022299029992195341
sS'condom'
p3844
F0.00022299029992195341
sS'8'
F0.00022299029992195341
sS'his'
p3845
F0.0025643884491024639
sS'banned'
p3846
F0.00022299029992195341
sS'trees'
p3847
F0.00022299029992195341
sS'famous'
p3848
F0.0001114951499609767
sS'remedy'
p3849
F0.0003344854498829301
sS'ninth'
p3850
F0.0001114951499609767
sS'theft'
p3851
F0.00022299029992195341
sS'during'
p3852
F0.00022299029992195341
sS'him'
p3853
F0.00089196119968781363
sS'cry'
p3854
F0.00022299029992195341
sS'activity'
p3855
F0.0001114951499609767
sS'locating'
p3856
F0.0001114951499609767
sS'set'
p3857
F0.00066897089976586019
sS'creator'
p3858
F0.00022299029992195341
sS'see'
p3859
F0.0023413981491805106
sS'are'
p3860
F0.0062437283978146949
sS'seo'
p3861
F0.0003344854498829301
sS'arm'
p3862
F0.00022299029992195341
sS'vitamins'
p3863
F0.00022299029992195341
sS'wow'
p3864
F0.00022299029992195341
sS'currently'
p3865
F0.00066897089976586019
sS'please'
p3866
F0.0010034563496487902
sS'various'
p3867
F0.00022299029992195341
sS'numerous'
p3868
F0.00055747574980488353
sS'available'
p3869
F0.00044598059984390681
sS'interface'
p3870
F0.00022299029992195341
sS'both'
p3871
F0.0003344854498829301
sS'c'
F0.0003344854498829301
sS'rushforce'
p3872
F0.00044598059984390681
sS'sensitive'
p3873
F0.0001114951499609767
sS'connection'
p3874
F0.0001114951499609767
sS'improves'
p3875
F0.0001114951499609767
sS'retarded'
p3876
F0.00022299029992195341
sS'lash'
p3877
F0.00044598059984390681
sS'rollers'
p3878
F0.00066897089976586019
sS'upgraded'
p3879
F0.00022299029992195341
sS'partage'
p3880
F0.00044598059984390681
sS'consume'
p3881
F0.0001114951499609767
sS'point'
p3882
F0.00055747574980488353
sS'simple'
p3883
F0.00078046604972683686
sS'elses'
p3884
F0.00022299029992195341
sS'whatever'
p3885
F0.0001114951499609767
sS'moisturizer'
p3886
F0.00078046604972683686
sS'belt'
p3887
F0.00022299029992195341
sS'cream'
p3888
F0.0032333593488683243
sS'create'
p3889
F0.00022299029992195341
sS'political'
p3890
F0.0001114951499609767
sS'due'
p3891
F0.0001114951499609767
sS'extravagant'
p3892
F0.00022299029992195341
sS'pe'
p3893
F0.00022299029992195341
sS'firm'
p3894
F0.00022299029992195341
sS'gay'
p3895
F0.00022299029992195341
sS'raj'
p3896
F0.0001114951499609767
sS'else'
p3897
F0.00055747574980488353
sS'hypernoxus'
p3898
F0.00022299029992195341
sS'awake'
p3899
F0.0001114951499609767
sS'look'
p3900
F0.0015609320994536737
sS'talking'
p3901
F0.0001114951499609767
sS'straight'
p3902
F0.00022299029992195341
sS'expanded'
p3903
F0.00022299029992195341
sS'while'
p3904
F0.00055747574980488353
sS'2348160153829'
p3905
F0.0001114951499609767
sS'itself'
p3906
F0.00022299029992195341
sS'ready'
p3907
F0.0001114951499609767
sS'letoile'
p3908
F0.00066897089976586019
sS"harvey's"
p3909
F0.00022299029992195341
sS'anymore'
p3910
F0.0003344854498829301
sS'shorter'
p3911
F0.0003344854498829301
sS'virtually'
p3912
F0.0003344854498829301
sS'9'
F0.00022299029992195341
sS'development'
p3913
F0.0018954175493366039
sS'used'
p3914
F0.00066897089976586019
sS'temporary'
p3915
F0.0001114951499609767
sS'flows'
p3916
F0.0001114951499609767
sS'uses'
p3917
F0.00044598059984390681
sS'purpose'
p3918
F0.00078046604972683686
sS'stack'
p3919
F0.00022299029992195341
sS'dark'
p3920
F0.0003344854498829301
sS'lower'
p3921
F0.0003344854498829301
sS'anybody'
p3922
F0.00022299029992195341
sS'edge'
p3923
F0.00022299029992195341
sS'stating'
p3924
F0.00022299029992195341
sS'prevention'
p3925
F0.00022299029992195341
sS'utkarsh'
p3926
F0.0001114951499609767
sS'things'
p3927
F0.00066897089976586019
sS'abstain'
p3928
F0.00022299029992195341
sS'facial'
p3929
F0.0001114951499609767
sS'questions'
p3930
F0.00044598059984390681
sS'using'
p3931
F0.00044598059984390681
sS'jkjk'
p3932
F0.00022299029992195341
sS'alternative'
p3933
F0.0001114951499609767
sS'majority'
p3934
F0.0001114951499609767
sS'supplementsoffer'
p3935
F0.00022299029992195341
sS'exercising'
p3936
F0.00022299029992195341
sS"can't"
p3937
F0.0003344854498829301
sS'location'
p3938
F0.00022299029992195341
sS'complying'
p3939
F0.0001114951499609767
sS'transformation'
p3940
F0.00044598059984390681
sS'evaluate'
p3941
F0.0003344854498829301
sS'couple'
p3942
F0.0001114951499609767
sS'matters'
p3943
F0.0001114951499609767
sS'game'
p3944
F0.00022299029992195341
sS'moods'
p3945
F0.0001114951499609767
sS'bit'
p3946
F0.00044598059984390681
sS'garciniacambogialean'
p3947
F0.0020069126992975804
sS'projects'
p3948
F0.00022299029992195341
sS'individuals'
p3949
F0.00044598059984390681
sS'popular'
p3950
F0.00022299029992195341
sS'essential'
p3951
F0.00022299029992195341
sS'google'
p3952
F0.00022299029992195341
sS'fucking'
p3953
F0.00089196119968781363
sS'creation'
p3954
F0.00044598059984390681
sS'some'
p3955
F0.0017839223993756273
sS'back'
p3956
F0.00055747574980488353
sS'economic'
p3957
F0.00022299029992195341
sS'sight'
p3958
F0.00022299029992195341
sS'scale'
p3959
F0.0001114951499609767
sS'dickheads'
p3960
F0.00022299029992195341
sS'integration'
p3961
F0.0001114951499609767
sS'germane'
p3962
F0.00022299029992195341
sS'eliminate'
p3963
F0.0003344854498829301
sS'eggheaded'
p3964
F0.00022299029992195341
sS'minimal'
p3965
F0.0001114951499609767
sS'be'
p3966
F0.0045713011484000447
sS'run'
p3967
F0.00022299029992195341
sS'rub'
p3968
F0.0003344854498829301
sS'step'
p3969
F0.00044598059984390681
sS'br'
p3970
F0.0001114951499609767
sS'relating'
p3971
F0.00022299029992195341
sS'intense'
p3972
F0.00089196119968781363
sS'degens'
p3973
F0.00022299029992195341
sS'page'
p3974
F0.00044598059984390681
sS'range'
p3975
F0.00022299029992195341
sS'extensions'
p3976
F0.00044598059984390681
sS'complimentary'
p3977
F0.0003344854498829301
sS'pollution'
p3978
F0.0001114951499609767
sS'repair'
p3979
F0.00022299029992195341
sS'whylie'
p3980
F0.00022299029992195341
sS'into'
p3981
F0.0011149514996097671
sS'integral'
p3982
F0.00078046604972683686
sS'elasticity'
p3983
F0.00022299029992195341
sS'appropriate'
p3984
F0.0003344854498829301
sS'steven'
p3985
F0.00022299029992195341
sS'question'
p3986
F0.0001114951499609767
sS'long'
p3987
F0.0003344854498829301
sS"we're"
p3988
F0.0001114951499609767
sS'heritage'
p3989
F0.00022299029992195341
sS'translate'
p3990
F0.00022299029992195341
sS'blueprint'
p3991
F0.00022299029992195341
sS'himself'
p3992
F0.0003344854498829301
sS'invite'
p3993
F0.00044598059984390681
sS'healthful'
p3994
F0.0003344854498829301
sS'bolsters'
p3995
F0.00022299029992195341
sS'19999999999999999999999999999999999999999999999999999delete'
p3996
F0.0001114951499609767
sS'russian'
p3997
F0.00022299029992195341
sS'considerable'
p3998
F0.0001114951499609767
sS'posted'
p3999
F0.00022299029992195341
sS'info'
p4000
F0.0003344854498829301
sS'fulfilling'
p4001
F0.0001114951499609767
sS'uv'
p4002
F0.00022299029992195341
sS'up'
p4003
F0.0018954175493366039
sS'us'
p4004
F0.0003344854498829301
sS'ul'
p4005
F0.00089196119968781363
sS'uk'
p4006
F0.00078046604972683686
sS'z'
F0.0003344854498829301
sS'called'
p4007
F0.00022299029992195341
sS'associated'
p4008
F0.00022299029992195341
sS'worthwhile'
p4009
F0.0001114951499609767
sS'diminishment'
p4010
F0.00044598059984390681
sS'metal'
p4011
F0.00022299029992195341
sS'unsafe'
p4012
F0.00022299029992195341
sS'ingredients'
p4013
F0.00089196119968781363
sS'brainboostersupplement'
p4014
F0.00066897089976586019
sS'functionality'
p4015
F0.00022299029992195341
sS'retract'
p4016
F0.0003344854498829301
sS'nice'
p4017
F0.0003344854498829301
sS'problems'
p4018
F0.0001114951499609767
sS'meaning'
p4019
F0.00044598059984390681
sS'allowing'
p4020
F0.0003344854498829301
sS'wrinkle'
p4021
F0.00078046604972683686
sS'sides'
p4022
F0.0003344854498829301
sS'ago'
p4023
F0.0001114951499609767
sS'e'
F0.0001114951499609767
sS'disbelief'
p4024
F0.0001114951499609767
sS'belve'
p4025
F0.00022299029992195341
sS'youtube'
p4026
F0.00066897089976586019
sS'far'
p4027
F0.00022299029992195341
sS'fresh'
p4028
F0.0003344854498829301
sS'requires'
p4029
F0.00022299029992195341
sS'having'
p4030
F0.00055747574980488353
sS'once'
p4031
F0.0001114951499609767
sS'code'
p4032
F0.0014494369494926971
sS'results'
p4033
F0.00055747574980488353
sS'go'
p4034
F0.0011149514996097671
sS'dumbbell'
p4035
F0.00022299029992195341
sS'peanut'
p4036
F0.00022299029992195341
sS'send'
p4037
F0.00022299029992195341
sS'suits'
p4038
F0.00022299029992195341
sS'bsdb'
p4039
F0.00022299029992195341
sS'pleasing'
p4040
F0.00022299029992195341
sS'confirmation'
p4041
F0.0001114951499609767
sS'telling'
p4042
F0.0001114951499609767
sS'harlow'
p4043
F0.00022299029992195341
sS'severely'
p4044
F0.00022299029992195341
sS'keemstar'
p4045
F0.00022299029992195341
sS'try'
p4046
F0.00078046604972683686
sS'dealt'
p4047
F0.00022299029992195341
sS'video'
p4048
F0.00022299029992195341
sS'acid'
p4049
F0.0003344854498829301
sS'nostalrius'
p4050
F0.00022299029992195341
sS'giving'
p4051
F0.00055747574980488353
sS'avinash'
p4052
F0.0001114951499609767
sS'oathtohealth'
p4053
F0.00066897089976586019
sS'exercise'
p4054
F0.00078046604972683686
sS'body'
p4055
F0.00089196119968781363
sS'degree'
p4056
F0.00066897089976586019
sS'radicals'
p4057
F0.00022299029992195341
sS'let'
p4058
F0.0001114951499609767
sS'others'
p4059
F0.00044598059984390681
sS'downvote'
p4060
F0.00022299029992195341
sS'extreme'
p4061
F0.00022299029992195341
sS'great'
p4062
F0.0014494369494926971
sS'warehousing'
p4063
F0.00022299029992195341
sS'receive'
p4064
F0.0001114951499609767
sS'32'
p4065
F0.0001114951499609767
sS'30'
p4066
F0.0001114951499609767
sS'products'
p4067
F0.00066897089976586019
sS'virility'
p4068
F0.00022299029992195341
sS'makes'
p4069
F0.0001114951499609767
sS'win'
p4070
F0.00022299029992195341
sS'app'
p4071
F0.0001114951499609767
sS'private'
p4072
F0.00022299029992195341
sS'outcomes'
p4073
F0.00022299029992195341
sS'decrease'
p4074
F0.00022299029992195341
sS'buildup'
p4075
F0.0001114951499609767
sS'tools'
p4076
F0.0001114951499609767
sS'use'
p4077
F0.0023413981491805106
sS'from'
p4078
F0.0027873787490244172
sS'remains'
p4079
F0.0003344854498829301
sS'breakup'
p4080
F0.0001114951499609767
sS'next'
p4081
F0.0001114951499609767
sS'few'
p4082
F0.0003344854498829301
sS'oils'
p4083
F0.0003344854498829301
sS'themselves'
p4084
F0.0001114951499609767
sS'stage'
p4085
F0.00022299029992195341
sS'antioxidants'
p4086
F0.0003344854498829301
sS"sun's"
p4087
F0.00022299029992195341
sS'pretty'
p4088
F0.0001114951499609767
sS'occurred'
p4089
F0.0001114951499609767
sS'penis'
p4090
F0.00022299029992195341
sS'augment'
p4091
F0.00022299029992195341
sS'this'
p4092
F0.0075816701973464157
sS'pour'
p4093
F0.00044598059984390681
sS'plate'
p4094
F0.0003344854498829301
sS'process'
p4095
F0.00089196119968781363
sS'lock'
p4096
F0.0003344854498829301
sS'rode'
p4097
F0.00022299029992195341
sS'high'
p4098
F0.00044598059984390681
sS'effectively'
p4099
F0.00044598059984390681
sS'something'
p4100
F0.0003344854498829301
sS'tan'
p4101
F0.0003344854498829301
sS'holds'
p4102
F0.00022299029992195341
sS'regions'
p4103
F0.00066897089976586019
sS'exfoliation'
p4104
F0.0001114951499609767
sS'comitted'
p4105
F0.0001114951499609767
sS'purely'
p4106
F0.00022299029992195341
sS'light'
p4107
F0.00066897089976586019
sS'prays'
p4108
F0.0001114951499609767
sS'allow'
p4109
F0.00078046604972683686
sS'musclebuildingbuy'
p4110
F0.00022299029992195341
sS'helix6garciniareview'
p4111
F0.00044598059984390681
sS'move'
p4112
F0.0003344854498829301
sS'whilst'
p4113
F0.0001114951499609767
sS'perfect'
p4114
F0.00022299029992195341
sS'write'
p4115
F0.0001114951499609767
sS'le'
p4116
F0.00044598059984390681
sS'la'
p4117
F0.00044598059984390681
sS'hypothesize'
p4118
F0.0001114951499609767
sS'li'
p4119
F0.00044598059984390681
sS'orange'
p4120
F0.00022299029992195341
sS'covered'
p4121
F0.00022299029992195341
sS'2016'
p4122
F0.00022299029992195341
sS'spell'
p4123
F0.00044598059984390681
sS'blessed'
p4124
F0.0001114951499609767
sS'newman'
p4125
F0.00022299029992195341
sS'day'
p4126
F0.00078046604972683686
sS'university'
p4127
F0.00044598059984390681
sS'merge'
p4128
F0.00022299029992195341
sS'grippers'
p4129
F0.00022299029992195341
sS'bills'
p4130
F0.00022299029992195341
sS'bdfdbdfbdfbfbdfb'
p4131
F0.00022299029992195341
sS'tracksuit'
p4132
F0.00022299029992195341
sS'doing'
p4133
F0.0003344854498829301
sS'chunk'
p4134
F0.00022299029992195341
sS'books'
p4135
F0.00022299029992195341
sS'our'
p4136
F0.0013379417995317204
sS'sexual'
p4137
F0.00022299029992195341
sS'out'
p4138
F0.0015609320994536737
sS'bag'
p4139
F0.00022299029992195341
sS'rel'
p4140
F0.010703534396253763
sS'rec'
p4141
F0.00044598059984390681
sS'memes'
p4142
F0.00022299029992195341
sS'cause'
p4143
F0.00022299029992195341
sS'harold'
p4144
F0.00022299029992195341
sS'completely'
p4145
F0.00022299029992195341
sS'receipts'
p4146
F0.00022299029992195341
sS'timey'
p4147
F0.0001114951499609767
sS'geometry'
p4148
F0.00022299029992195341
sS'could'
p4149
F0.0003344854498829301
sS'scars'
p4150
F0.00066897089976586019
sS'times'
p4151
F0.0001114951499609767
sS'gardemeublespascher'
p4152
F0.00044598059984390681
sS'cunts'
p4153
F0.00022299029992195341
sS'hexadecimal'
p4154
F0.00022299029992195341
sS'powerful'
p4155
F0.00055747574980488353
sS'extrude'
p4156
F0.00022299029992195341
sS'quality'
p4157
F0.0003344854498829301
sS"doesn't"
p4158
F0.0003344854498829301
sS'fair'
p4159
F0.0001114951499609767
sS'guys'
p4160
F0.0001114951499609767
sS'their'
p4161
F0.00089196119968781363
sS'wilkinson'
p4162
F0.00022299029992195341
sS"god's"
p4163
F0.00022299029992195341
sS'nitro'
p4164
F0.0062437283978146949
sS'regards'
p4165
F0.0003344854498829301
sS'herself'
p4166
F0.00022299029992195341
sS'jocks'
p4167
F0.00022299029992195341
sS'bed'
p4168
F0.00066897089976586019
sS'allure'
p4169
F0.0013379417995317204
sS'lover'
p4170
F0.00022299029992195341
sS'exfoliating'
p4171
F0.0001114951499609767
sS'poisons'
p4172
F0.00022299029992195341
sS'gently'
p4173
F0.0003344854498829301
sS'comfortable'
p4174
F0.00022299029992195341
sS'tonight'
p4175
F0.00022299029992195341
sS'gentle'
p4176
F0.0003344854498829301
sS'have'
p4177
F0.0043483108484780909
sS'need'
p4178
F0.0013379417995317204
sS'border'
p4179
F0.00022299029992195341
sS'clearly'
p4180
F0.00022299029992195341
sS'suryaonlinetrainings'
p4181
F0.00022299029992195341
sS'mix'
p4182
F0.00022299029992195341
sS'which'
p4183
F0.0039023302486341843
sS'lectures'
p4184
F0.0001114951499609767
sS'unless'
p4185
F0.0001114951499609767
sS'who'
p4186
F0.0012264466495707437
sS'harmful'
p4187
F0.00022299029992195341
sS'why'
p4188
F0.00044598059984390681
sS'upset'
p4189
F0.0001114951499609767
sS'face'
p4190
F0.0003344854498829301
sS'goals'
p4191
F0.00022299029992195341
sS'impression'
p4192
F0.0001114951499609767
sS'bring'
p4193
F0.00022299029992195341
sS'manchester'
p4194
F0.00022299029992195341
sS'utter'
p4195
F0.0001114951499609767
sS'torrenting'
p4196
F0.00022299029992195341
sS'pleased'
p4197
F0.0001114951499609767
sS'based'
p4198
F0.00066897089976586019
sS'knowledge'
p4199
F0.00022299029992195341
sS'should'
p4200
F0.0014494369494926971
sS'fuel'
p4201
F0.00089196119968781363
sS'local'
p4202
F0.00044598059984390681
sS'hope'
p4203
F0.0001114951499609767
sS'regularly'
p4204
F0.0001114951499609767
sS'cube'
p4205
F0.00022299029992195341
sS'means'
p4206
F0.00022299029992195341
sS'beat'
p4207
F0.0003344854498829301
sS'mainly'
p4208
F0.0001114951499609767
sS'overall'
p4209
F0.00078046604972683686
sS'course'
p4210
F0.0014494369494926971
sS'wellness'
p4211
F0.00022299029992195341
sS'fixes'
p4212
F0.00044598059984390681
sS'taxes'
p4213
F0.0003344854498829301
sS'stuff'
p4214
F0.0001114951499609767
sS'she'
p4215
F0.00044598059984390681
sS'adeel'
p4216
F0.00022299029992195341
sS'contain'
p4217
F0.00022299029992195341
sS'monstrosities'
p4218
F0.00022299029992195341
sS'view'
p4219
F0.00055747574980488353
sS'enhancer'
p4220
F0.00022299029992195341
sS'grieve'
p4221
F0.0001114951499609767
sS'packet'
p4222
F0.00022299029992195341
sS'gmail'
p4223
F0.0003344854498829301
sS'lux'
p4224
F0.0013379417995317204
sS'state'
p4225
F0.00022299029992195341
sS'distressingly'
p4226
F0.0001114951499609767
sS'routine'
p4227
F0.00022299029992195341
sS'progress'
p4228
F0.0001114951499609767
sS'email'
p4229
F0.00066897089976586019
sS'pmiacp'
p4230
F0.00022299029992195341
sS'ends'
p4231
F0.0003344854498829301
sS'weighing'
p4232
F0.0001114951499609767
sS'exam'
p4233
F0.00044598059984390681
sS'vitamin'
p4234
F0.0003344854498829301
sS'armenia'
p4235
F0.00022299029992195341
sS'legit'
p4236
F0.00022299029992195341
sS'instant'
p4237
F0.0001114951499609767
sS'admin'
p4238
F0.00022299029992195341
sS'taking'
p4239
F0.0001114951499609767
sS'etl'
p4240
F0.0022299029992195341
sS'relevant'
p4241
F0.0003344854498829301
sS'co'
p4242
F0.00055747574980488353
sS'conclude'
p4243
F0.00022299029992195341
sS'wall'
p4244
F0.00022299029992195341
sS'antioxidant'
p4245
F0.00022299029992195341
sS'ce'
p4246
F0.00044598059984390681
sS'smoldering'
p4247
F0.00022299029992195341
sS'quit'
p4248
F0.0003344854498829301
sS'accomplishing'
p4249
F0.00044598059984390681
sS'addition'
p4250
F0.00022299029992195341
sS"it's"
p4251
F0.0003344854498829301
sS'copies'
p4252
F0.00022299029992195341
sS'invigorates'
p4253
F0.00022299029992195341
sS'utilizing'
p4254
F0.00044598059984390681
sS'recurring'
p4255
F0.00022299029992195341
sS'rambox'
p4256
F0.00044598059984390681
sS'remedies'
p4257
F0.0003344854498829301
sS'tissues'
p4258
F0.00066897089976586019
sS'suryaonlinetraining'
p4259
F0.00066897089976586019
sS'exfoliate'
p4260
F0.00022299029992195341
sS'an'
p4261
F0.0024528932991414874
sS'present'
p4262
F0.00022299029992195341
sS'abandoned'
p4263
F0.00022299029992195341
sS'plain'
p4264
F0.00022299029992195341
sS'vanilla'
p4265
F0.00022299029992195341
sS'appearance'
p4266
F0.0003344854498829301
sS'value'
p4267
F0.0003344854498829301
sS'advisors'
p4268
F0.0001114951499609767
sS'stunning'
p4269
F0.00022299029992195341
sS'archie'
p4270
F0.00022299029992195341
sS've'
p4271
F0.0001114951499609767
sS'manually'
p4272
F0.00022299029992195341
sS'almost'
p4273
F0.0001114951499609767
sS'demo'
p4274
F0.00022299029992195341
sS'site'
p4275
F0.00044598059984390681
sS'staminol'
p4276
F0.00022299029992195341
sS's2g'
p4277
F0.00022299029992195341
sS'perhaps'
p4278
F0.0001114951499609767
sS'joondalup'
p4279
F0.00066897089976586019
sS'cross'
p4280
F0.00022299029992195341
sS'parts'
p4281
F0.00055747574980488353
sS'largest'
p4282
F0.0001114951499609767
sS'units'
p4283
F0.00022299029992195341
sS'party'
p4284
F0.0003344854498829301
sS'gets'
p4285
F0.00044598059984390681
sS'difficult'
p4286
F0.00022299029992195341
sS'http'
p4287
F0.016501282194224552
sS'iot'
p4288
F0.0015609320994536737
sS'upon'
p4289
F0.0003344854498829301
sS'effect'
p4290
F0.00055747574980488353
sS'student'
p4291
F0.00022299029992195341
sS'identity'
p4292
F0.00055747574980488353
sS'off'
p4293
F0.00066897089976586019
sS'center'
p4294
F0.00066897089976586019
sS'i'
F0.0098115731965659498
sS'disappears'
p4295
F0.0003344854498829301
sS'incredible'
p4296
F0.00022299029992195341
sS'madhapur'
p4297
F0.0001114951499609767
sS'wants'
p4298
F0.0001114951499609767
sS'oops'
p4299
F0.0001114951499609767
sS'position'
p4300
F0.0003344854498829301
sS'muscle'
p4301
F0.0025643884491024639
sS'drawing'
p4302
F0.00022299029992195341
sS'latest'
p4303
F0.0001114951499609767
sS'restore'
p4304
F0.0001114951499609767
sS'cried'
p4305
F0.0001114951499609767
sS'obtain'
p4306
F0.0003344854498829301
sS'web'
p4307
F0.00078046604972683686
sS'add'
p4308
F0.0003344854498829301
sS'cosmetics'
p4309
F0.0001114951499609767
sS'ought'
p4310
F0.00022299029992195341
sS'definitive'
p4311
F0.00022299029992195341
sS'five'
p4312
F0.0001114951499609767
sS'know'
p4313
F0.00089196119968781363
sS'presume'
p4314
F0.00022299029992195341
sS'press'
p4315
F0.00044598059984390681
sS'immediately'
p4316
F0.00022299029992195341
sS'testo'
p4317
F0.0050172817482439513
sS'necessary'
p4318
F0.00022299029992195341
sS'like'
p4319
F0.0014494369494926971
sS'success'
p4320
F0.0001114951499609767
sS'4chan'
p4321
F0.00022299029992195341
sS'become'
p4322
F0.0011149514996097671
sS'works'
p4323
F0.0010034563496487902
sS'radiant'
p4324
F0.0001114951499609767
sS'because'
p4325
F0.00066897089976586019
sS'school'
p4326
F0.0003344854498829301
sS'alive'
p4327
F0.0001114951499609767
sS'growth'
p4328
F0.0001114951499609767
sS'proper'
p4329
F0.00066897089976586019
sS'home'
p4330
F0.0003344854498829301
sS'supportive'
p4331
F0.0001114951499609767
sS'happens'
p4332
F0.00022299029992195341
sS'lead'
p4333
F0.0003344854498829301
sS'avoid'
p4334
F0.00022299029992195341
sS'does'
p4335
F0.0003344854498829301
sS'economical'
p4336
F0.00022299029992195341
sS'locate'
p4337
F0.00022299029992195341
sS'ripped'
p4338
F0.00022299029992195341
sS'blowing'
p4339
F0.00022299029992195341
sS'rock'
p4340
F0.0001114951499609767
sS'hiding'
p4341
F0.0001114951499609767
sS'about'
p4342
F0.0012264466495707437
sS'lifestyle'
p4343
F0.0003344854498829301
sS'testosterone'
p4344
F0.00078046604972683686
sS'world'
p4345
F0.0003344854498829301
sS'getting'
p4346
F0.00066897089976586019
sS'swear'
p4347
F0.00022299029992195341
sS'h2'
p4348
F0.00044598059984390681
sS'h1'
p4349
F0.00066897089976586019
sS'promise'
p4350
F0.0001114951499609767
sS'registration'
p4351
F0.00022299029992195341
sS'additional'
p4352
F0.0001114951499609767
sS'noticed'
p4353
F0.00022299029992195341
sS'function'
p4354
F0.0001114951499609767
sS'north'
p4355
F0.00022299029992195341
sS"i've"
p4356
F0.00044598059984390681
sS'hr'
p4357
F0.00044598059984390681
sS'funds'
p4358
F0.00022299029992195341
sS'but'
p4359
F0.0022299029992195341
sS'gain'
p4360
F0.00022299029992195341
sS'overflow'
p4361
F0.00022299029992195341
sS'he'
p4362
F0.0025643884491024639
sS'made'
p4363
F0.00066897089976586019
sS'dangerous'
p4364
F0.0003344854498829301
sS'official'
p4365
F0.0003344854498829301
sS'variations'
p4366
F0.00022299029992195341
sS'problem'
p4367
F0.00089196119968781363
sS'piece'
p4368
F0.00022299029992195341
sS'sponsor'
p4369
F0.00022299029992195341
sS'contribute'
p4370
F0.00044598059984390681
sS'relates'
p4371
F0.00022299029992195341
sS'eric'
p4372
F0.00044598059984390681
sS'9618546596'
p4373
F0.00022299029992195341
sS'functions'
p4374
F0.00044598059984390681
sS'compared'
p4375
F0.0003344854498829301
sS'variety'
p4376
F0.0001114951499609767
sS'other'
p4377
F0.00078046604972683686
sS'details'
p4378
F0.0013379417995317204
sS'conclusion'
p4379
F0.00022299029992195341
sS'variation'
p4380
F0.00022299029992195341
sS'stay'
p4381
F0.00022299029992195341
sS'pumps'
p4382
F0.00022299029992195341
sS'additionally'
p4383
F0.0003344854498829301
sS'empowers'
p4384
F0.00022299029992195341
sS'alienated'
p4385
F0.0001114951499609767
sS'searched'
p4386
F0.0001114951499609767
ssS'title'
p4387
(dp4388
S'all'
p4389
F0.0022909507445589921
sS'lse'
p4390
F0.001145475372279496
sS'help'
p4391
F0.0034364261168384879
sS'certification'
p4392
F0.0022909507445589921
sS'text'
p4393
F0.0034364261168384879
sS'over'
p4394
F0.0022909507445589921
sS'move'
p4395
F0.0022909507445589921
sS'not'
p4396
F0.0045819014891179842
sS'skin'
p4397
F0.0034364261168384879
sS'go'
p4398
F0.0022909507445589921
sS'32'
p4399
F0.001145475372279496
sS'redirect'
p4400
F0.0080183276059564712
sS'web'
p4401
F0.0034364261168384879
sS'trying'
p4402
F0.0022909507445589921
sS'group'
p4403
F0.0022909507445589921
sS'how'
p4404
F0.014891179839633447
sS'payumoney'
p4405
F0.0034364261168384879
sS'sonarqube'
p4406
F0.0034364261168384879
sS'28'
p4407
F0.001145475372279496
sS'removal'
p4408
F0.0034364261168384879
sS'here'
p4409
F0.001145475372279496
sS'to'
p4410
F0.044673539518900345
sS'add'
p4411
F0.0034364261168384879
sS'does'
p4412
F0.0045819014891179842
sS'black'
p4413
F0.0034364261168384879
sS'under'
p4414
F0.0022909507445589921
sS'integrate'
p4415
F0.0034364261168384879
sS'mail'
p4416
F0.001145475372279496
sS'has'
p4417
F0.0022909507445589921
sS'intelligencerx'
p4418
F0.0034364261168384879
sS'into'
p4419
F0.0022909507445589921
sS'2012'
p4420
F0.0022909507445589921
sS'real'
p4421
F0.001145475372279496
sS'case'
p4422
F0.0045819014891179842
sS'tests'
p4423
F0.001145475372279496
sS'hotmail'
p4424
F0.001145475372279496
sS'string'
p4425
F0.0068728522336769758
sS'format'
p4426
F0.0034364261168384879
sS'very'
p4427
F0.001145475372279496
sS'auto'
p4428
F0.0034364261168384879
sS'6'
F0.0034364261168384879
sS'spell'
p4429
F0.001145475372279496
sS'mxs'
p4430
F0.0045819014891179842
sS'number'
p4431
F0.0034364261168384879
sS'geek'
p4432
F0.001145475372279496
sS'2'
F0.0034364261168384879
sS'maleenhancementshop'
p4433
F0.001145475372279496
sS'should'
p4434
F0.0022909507445589921
sS'formula'
p4435
F0.0034364261168384879
sS'press'
p4436
F0.0022909507445589921
sS'using'
p4437
F0.0080183276059564712
sS'password'
p4438
F0.0045819014891179842
sS'testo'
p4439
F0.0080183276059564712
sS'permissions'
p4440
F0.0034364261168384879
sS'service'
p4441
F0.0034364261168384879
sS'child'
p4442
F0.0022909507445589921
sS'extrusion'
p4443
F0.0022909507445589921
sS'name'
p4444
F0.0034364261168384879
sS'inviting'
p4445
F0.001145475372279496
sS'course'
p4446
F0.001145475372279496
sS'fields'
p4447
F0.0022909507445589921
sS'university'
p4448
F0.0022909507445589921
sS'mohammed'
p4449
F0.001145475372279496
sS'l'
F0.0034364261168384879
sS'server'
p4450
F0.0022909507445589921
sS'specific'
p4451
F0.0045819014891179842
sS'dickheads'
p4452
F0.0022909507445589921
sS'diy'
p4453
F0.0034364261168384879
sS'triceps'
p4454
F0.0022909507445589921
sS'quick'
p4455
F0.0022909507445589921
sS'x'
F0.0034364261168384879
sS'muscles'
p4456
F0.0045819014891179842
sS'works'
p4457
F0.0022909507445589921
sS'where'
p4458
F0.001145475372279496
sS'page'
p4459
F0.0080183276059564712
sS"isn't"
p4460
F0.0022909507445589921
sS'warner'
p4461
F0.001145475372279496
sS'serach'
p4462
F0.0034364261168384879
sS'domain'
p4463
F0.0034364261168384879
sS'work'
p4464
F0.0045819014891179842
sS'force'
p4465
F0.0068728522336769758
sS'portable'
p4466
F0.0034364261168384879
sS'people'
p4467
F0.0022909507445589921
sS'eyelash'
p4468
F0.001145475372279496
sS'oli'
p4469
F0.001145475372279496
sS'fish'
p4470
F0.0045819014891179842
sS'testing'
p4471
F0.0022909507445589921
sS'some'
p4472
F0.0045819014891179842
sS'back'
p4473
F0.001145475372279496
sS'allure'
p4474
F0.0045819014891179842
sS'design'
p4475
F0.0022909507445589921
sS'connect'
p4476
F0.0022909507445589921
sS'proper'
p4477
F0.0034364261168384879
sS'temporary'
p4478
F0.001145475372279496
sS'etoile'
p4479
F0.0034364261168384879
sS'php'
p4480
F0.0022909507445589921
sS'really'
p4481
F0.0022909507445589921
sS'trick'
p4482
F0.001145475372279496
sS'what'
p4483
F0.0068728522336769758
sS'cock'
p4484
F0.0022909507445589921
sS'hide'
p4485
F0.0034364261168384879
sS'jewelry'
p4486
F0.0034364261168384879
sS'for'
p4487
F0.010309278350515464
sS'contacts'
p4488
F0.001145475372279496
sS'lux'
p4489
F0.0045819014891179842
sS'god'
p4490
F0.001145475372279496
sS'integration'
p4491
F0.001145475372279496
sS'your'
p4492
F0.0022909507445589921
sS'state'
p4493
F0.0022909507445589921
sS'unable'
p4494
F0.0022909507445589921
sS'run'
p4495
F0.0022909507445589921
sS'xt'
p4496
F0.001145475372279496
sS"date'"
p4497
F0.0022909507445589921
sS'between'
p4498
F0.001145475372279496
sS'import'
p4499
F0.001145475372279496
sS'boost'
p4500
F0.001145475372279496
sS'email'
p4501
F0.001145475372279496
sS'3d'
p4502
F0.0034364261168384879
sS'inserting'
p4503
F0.0034364261168384879
sS'notice'
p4504
F0.0022909507445589921
sS'full'
p4505
F0.001145475372279496
sS'explosion'
p4506
F0.0022909507445589921
sS'do'
p4507
F0.001145475372279496
sS'302'
p4508
F0.0045819014891179842
sS'of'
p4509
F0.013745704467353952
sS'free'
p4510
F0.0022909507445589921
sS'mikhail'
p4511
F0.0022909507445589921
sS'journeyman'
p4512
F0.001145475372279496
sS'html5'
p4513
F0.0022909507445589921
sS'key'
p4514
F0.0034364261168384879
sS'others'
p4515
F0.0022909507445589921
sS'org'
p4516
F0.0022909507445589921
sS'relating'
p4517
F0.0022909507445589921
sS'by'
p4518
F0.001145475372279496
sS'care'
p4519
F0.0034364261168384879
sS'on'
p4520
F0.0045819014891179842
sS'training'
p4521
F0.0022909507445589921
sS'testosterone'
p4522
F0.0022909507445589921
sS'forum'
p4523
F0.0022909507445589921
sS'admin'
p4524
F0.0034364261168384879
sS'many'
p4525
F0.0022909507445589921
sS'rushforce'
p4526
F0.001145475372279496
sS'disinfect'
p4527
F0.0045819014891179842
sS'experience'
p4528
F0.0022909507445589921
sS'trial'
p4529
F0.0022909507445589921
sS'supplements'
p4530
F0.0022909507445589921
sS'ensure'
p4531
F0.0022909507445589921
sS'supplementoffers'
p4532
F0.0022909507445589921
sS'shared'
p4533
F0.0022909507445589921
sS"i'm"
p4534
F0.0022909507445589921
sS'mean'
p4535
F0.001145475372279496
sS'com'
p4536
F0.0022909507445589921
sS'other'
p4537
F0.0034364261168384879
sS'etl'
p4538
F0.0022909507445589921
sS'printed'
p4539
F0.0034364261168384879
sS'comment'
p4540
F0.0034364261168384879
sS'info'
p4541
F0.001145475372279496
sS'anti'
p4542
F0.0034364261168384879
sS'love'
p4543
F0.001145475372279496
sS'addresses'
p4544
F0.001145475372279496
sS'slices'
p4545
F0.0045819014891179842
sS'simple'
p4546
F0.0022909507445589921
sS'image'
p4547
F0.001145475372279496
sS'www'
p4548
F0.0022909507445589921
sS'one'
p4549
F0.0045819014891179842
sS'variable'
p4550
F0.0022909507445589921
sS'ravi'
p4551
F0.001145475372279496
sS'another'
p4552
F0.0034364261168384879
sS'experiencing'
p4553
F0.0022909507445589921
sS'home'
p4554
F0.0034364261168384879
sS'pmp'
p4555
F0.0034364261168384879
sS'custom'
p4556
F0.0034364261168384879
sS'gateway'
p4557
F0.0034364261168384879
sS'select'
p4558
F0.0022909507445589921
sS'management'
p4559
F0.0022909507445589921
sS'engines'
p4560
F0.0034364261168384879
sS'there'
p4561
F0.0034364261168384879
sS'revive'
p4562
F0.001145475372279496
sS'fast'
p4563
F0.001145475372279496
sS'grow'
p4564
F0.0022909507445589921
sS'error'
p4565
F0.0045819014891179842
sS'window'
p4566
F0.0045819014891179842
sS'l2tp'
p4567
F0.0022909507445589921
sS'memory'
p4568
F0.001145475372279496
sS'checkout'
p4569
F0.0045819014891179842
sS'remedies'
p4570
F0.0034364261168384879
sS'eyes'
p4571
F0.001145475372279496
sS'diamond'
p4572
F0.0034364261168384879
sS'north'
p4573
F0.0022909507445589921
sS'nitro'
p4574
F0.0091638029782359683
sS'form'
p4575
F0.0045819014891179842
sS'that'
p4576
F0.0057273768613974796
sS'am'
p4577
F0.0022909507445589921
sS'differences'
p4578
F0.001145475372279496
sS'fuel'
p4579
F0.0022909507445589921
sS'part'
p4580
F0.0068728522336769758
sS'newhealthsupplement'
p4581
F0.0022909507445589921
sS'employed'
p4582
F0.001145475372279496
sS'e'
F0.001145475372279496
sS'customer'
p4583
F0.0080183276059564712
sS'vpn'
p4584
F0.0022909507445589921
sS'with'
p4585
F0.0091638029782359683
sS'jquery'
p4586
F0.0022909507445589921
sS'propose'
p4587
F0.0022909507445589921
sS'stacked'
p4588
F0.001145475372279496
sS'14'
p4589
F0.001145475372279496
sS'raw'
p4590
F0.0091638029782359683
sS'mysql'
p4591
F0.0022909507445589921
sS'loginpost'
p4592
F0.0045819014891179842
sS'uv'
p4593
F0.0045819014891179842
sS'up'
p4594
F0.001145475372279496
sS'an'
p4595
F0.0022909507445589921
sS'project'
p4596
F0.0022909507445589921
sS'i'
F0.0045819014891179842
sS'can'
p4597
F0.0022909507445589921
sS'627212264'
p4598
F0.0022909507445589921
sS'specialists'
p4599
F0.0022909507445589921
sS'login'
p4600
F0.0080183276059564712
sS'problem'
p4601
F0.0022909507445589921
sS'carolina'
p4602
F0.0022909507445589921
sS'my'
p4603
F0.0022909507445589921
sS'sla'
p4604
F0.0034364261168384879
sS'are'
p4605
F0.0045819014891179842
sS'and'
p4606
F0.012600229095074456
sS'072'
p4607
F0.001145475372279496
sS'give'
p4608
F0.0045819014891179842
sS'defined'
p4609
F0.0022909507445589921
sS'is'
p4610
F0.010309278350515464
sS'sushi'
p4611
F0.0045819014891179842
sS'permutapalindromic'
p4612
F0.001145475372279496
sS'fuck'
p4613
F0.001145475372279496
sS'comfortable'
p4614
F0.0022909507445589921
sS'high'
p4615
F0.0034364261168384879
sS'mohan'
p4616
F0.001145475372279496
sS'as'
p4617
F0.0057273768613974796
sS'buy'
p4618
F0.0022909507445589921
sS'magento'
p4619
F0.0034364261168384879
sS'numbers'
p4620
F0.001145475372279496
sS'have'
p4621
F0.0022909507445589921
sS'in'
p4622
F0.016036655211912942
sS'need'
p4623
F0.0034364261168384879
sS'buildng'
p4624
F0.001145475372279496
sS'any'
p4625
F0.0068728522336769758
sS'ex'
p4626
F0.001145475372279496
sS'parent'
p4627
F0.0022909507445589921
sS'aging'
p4628
F0.0034364261168384879
sS'different'
p4629
F0.0022909507445589921
sS'issue'
p4630
F0.0034364261168384879
sS'requirements'
p4631
F0.001145475372279496
sS'efficient'
p4632
F0.0022909507445589921
sS'get'
p4633
F0.001145475372279496
sS'when'
p4634
F0.0068728522336769758
sS'virtual'
p4635
F0.0034364261168384879
sS'machine'
p4636
F0.0034364261168384879
sS'automatic'
p4637
F0.0034364261168384879
sS'lamp'
p4638
F0.0045819014891179842
sS'html'
p4639
F0.0034364261168384879
sS'5'
F0.0034364261168384879
sS'build'
p4640
F0.0057273768613974796
sS'which'
p4641
F0.0022909507445589921
sS'online'
p4642
F0.0022909507445589921
sS'performance'
p4643
F0.0034364261168384879
sS'you'
p4644
F0.0068728522336769758
sS"'input"
p4645
F0.0022909507445589921
sS"pmi's"
p4646
F0.001145475372279496
sS'printer'
p4647
F0.0034364261168384879
sS'http'
p4648
F0.0057273768613974796
sS'beauty'
p4649
F0.001145475372279496
sS'may'
p4650
F0.0022909507445589921
sS'after'
p4651
F0.0034364261168384879
sS'herbs'
p4652
F0.0022909507445589921
sS'wrong'
p4653
F0.0045819014891179842
sS'documents'
p4654
F0.0022909507445589921
sS'mankind'
p4655
F0.001145475372279496
sS'accounts'
p4656
F0.001145475372279496
sS'date'
p4657
F0.0022909507445589921
sS'alpha'
p4658
F0.0057273768613974796
sS'detox'
p4659
F0.0022909507445589921
sS'friends'
p4660
F0.001145475372279496
sS'payment'
p4661
F0.0034364261168384879
sS'types'
p4662
F0.0045819014891179842
sS'vitamins'
p4663
F0.0022909507445589921
sS'a'
F0.025200458190148912
sS'natural'
p4664
F0.0022909507445589921
sS'eject'
p4665
F0.0034364261168384879
sS'database'
p4666
F0.0022909507445589921
sS'windows'
p4667
F0.0057273768613974796
sS'flow'
p4668
F0.001145475372279496
sS'q'
F0.0022909507445589921
sS'severe'
p4669
F0.0022909507445589921
sS'without'
p4670
F0.0068728522336769758
sS'ultimate'
p4671
F0.0022909507445589921
sS'at'
p4672
F0.0034364261168384879
sS'position'
p4673
F0.0034364261168384879
sS'the'
p4674
F0.010309278350515464
sS'muscle'
p4675
F0.001145475372279496
sS'having'
p4676
F0.0022909507445589921
sS'joining'
p4677
F0.0022909507445589921
sss.